GAS LISTING /tmp/ccSR5ZOo.s 			page 1


   1              		.file	"testGetId.cpp"
   2              		.option pic
   3              		.option norelax
   4              		.text
   5              	.Ltext0:
   6              		.section	.rodata._ZN10WorkerAMod3runEv.str1.8,"aMS",@progbits,1
   7              		.align	3
   8              	.LC0:
   9 0000 413A204D 		.string	"A: MyID: "
   9      7949443A 
   9      2000
  10 000a 00000000 		.align	3
  10      0000
  11              	.LC1:
  12 0010 0A00     		.string	"\n"
  13              		.section	.text._ZN10WorkerAMod3runEv,"axG",@progbits,_ZN10WorkerAMod3runEv,comdat
  14              		.align	2
  15              		.weak	_ZN10WorkerAMod3runEv
  17              	_ZN10WorkerAMod3runEv:
  18              	.LFB32:
  19              		.file 1 "tests/testGetId.cpp"
   1:tests/testGetId.cpp **** //
   2:tests/testGetId.cpp **** // Created by os on 9/18/24.
   3:tests/testGetId.cpp **** //
   4:tests/testGetId.cpp **** 
   5:tests/testGetId.cpp **** #include "testGetId.h"
   6:tests/testGetId.cpp **** #include "../h/syscall_cpp.hpp"
   7:tests/testGetId.cpp **** #include "printing.hpp"
   8:tests/testGetId.cpp **** #include "../h/tcb.hpp"
   9:tests/testGetId.cpp **** class WorkerAMod: public Thread {
  10:tests/testGetId.cpp **** public:
  11:tests/testGetId.cpp ****     WorkerAMod():Thread() {}
  12:tests/testGetId.cpp ****     //static bool timeForAToPrint;
  13:tests/testGetId.cpp **** 
  14:tests/testGetId.cpp ****     void run() override {
  20              		.loc 1 14 10
  21              		.cfi_startproc
  22              	.LVL0:
  23 0000 130101FE 		addi	sp,sp,-32
  24              		.cfi_def_cfa_offset 32
  25 0004 233C1100 		sd	ra,24(sp)
  26 0008 23388100 		sd	s0,16(sp)
  27 000c 23349100 		sd	s1,8(sp)
  28 0010 23302101 		sd	s2,0(sp)
  29              		.cfi_offset 1, -8
  30              		.cfi_offset 8, -16
  31              		.cfi_offset 9, -24
  32              		.cfi_offset 18, -32
  33 0014 13040102 		addi	s0,sp,32
  34              		.cfi_def_cfa 8, 0
  15:tests/testGetId.cpp ****         functionAMod(nullptr);
  35              		.loc 1 15 9
  36              	.LVL1:
  16:tests/testGetId.cpp ****     }
  17:tests/testGetId.cpp **** 
  18:tests/testGetId.cpp ****     void functionAMod(void* ptr) {
  19:tests/testGetId.cpp ****         for(uint64 i = 0; i < 10; i++) {
GAS LISTING /tmp/ccSR5ZOo.s 			page 2


  37              		.loc 1 19 9
  38              	.LBB25:
  39              	.LBB26:
  40              		.loc 1 19 20 is_stmt 0
  41 0018 93040000 		li	s1,0
  42 001c 6F00C005 		j	.L6
  43              	.LVL2:
  44              	.L4:
  45              	.LBB27:
  20:tests/testGetId.cpp ****             while(!TCB::readyToPrintA) {
  21:tests/testGetId.cpp **** 
  22:tests/testGetId.cpp ****             }
  23:tests/testGetId.cpp **** for(uint64 k = 0; k < 3000000; k++) {
  24:tests/testGetId.cpp ****                 //busy wait!
  25:tests/testGetId.cpp ****             }
  26:tests/testGetId.cpp ****           //  printString("Evo me u A");
  27:tests/testGetId.cpp ****             TCB::readyToPrintA = false;
  46              		.loc 1 27 13 is_stmt 1
  47              		.loc 1 27 32 is_stmt 0
  48 0020 97070000 		la	a5,_ZN3TCB13readyToPrintAE
  48      83B70700 
  49              	.LVL3:
  50 0028 23800700 		sb	zero,0(a5)
  28:tests/testGetId.cpp ****             int idA = getThreadId();
  51              		.loc 1 28 13 is_stmt 1
  52              		.loc 1 28 34 is_stmt 0
  53 002c 97000000 		call	_Z11getThreadIdv@plt
  53      E7800000 
  54              	.LVL4:
  55 0034 13090500 		mv	s2,a0
  56              	.LVL5:
  29:tests/testGetId.cpp ****             printString("A: MyID: ");
  57              		.loc 1 29 13 is_stmt 1
  58              		.loc 1 29 24 is_stmt 0
  59 0038 17050000 		lla	a0,.LC0
  59      13050500 
  60 0040 97000000 		call	_Z11printStringPKc@plt
  60      E7800000 
  61              	.LVL6:
  30:tests/testGetId.cpp ****             printInt(idA);
  62              		.loc 1 30 13 is_stmt 1
  63              		.loc 1 30 21 is_stmt 0
  64 0048 13060000 		li	a2,0
  65 004c 9305A000 		li	a1,10
  66 0050 13050900 		mv	a0,s2
  67 0054 97000000 		call	_Z8printIntiii@plt
  67      E7800000 
  68              	.LVL7:
  31:tests/testGetId.cpp ****             printString("\n");
  69              		.loc 1 31 13 is_stmt 1
  70              		.loc 1 31 24 is_stmt 0
  71 005c 17050000 		lla	a0,.LC1
  71      13050500 
  72 0064 97000000 		call	_Z11printStringPKc@plt
  72      E7800000 
  73              	.LVL8:
  32:tests/testGetId.cpp ****            // printString("opet");
GAS LISTING /tmp/ccSR5ZOo.s 			page 3


  33:tests/testGetId.cpp ****             thread_dispatch();
  74              		.loc 1 33 13 is_stmt 1
  75              		.loc 1 33 28 is_stmt 0
  76 006c 97000000 		call	_Z15thread_dispatchv@plt
  76      E7800000 
  77              	.LVL9:
  78              	.LBE27:
  19:tests/testGetId.cpp ****             while(!TCB::readyToPrintA) {
  79              		.loc 1 19 9 is_stmt 1
  80 0074 93841400 		addi	s1,s1,1
  81              	.LVL10:
  82              	.L6:
  19:tests/testGetId.cpp ****             while(!TCB::readyToPrintA) {
  83              		.loc 1 19 29
  84 0078 93079000 		li	a5,9
  85 007c 63E69702 		bgtu	s1,a5,.L1
  86              	.L3:
  87              	.LBB29:
  20:tests/testGetId.cpp **** 
  88              		.loc 1 20 13
  20:tests/testGetId.cpp **** 
  89              		.loc 1 20 19
  90 0080 97070000 		la	a5,_ZN3TCB13readyToPrintAE
  90      83B70700 
  91 0088 83C70700 		lbu	a5,0(a5)
  92 008c E38A07FE 		beqz	a5,.L3
  93              	.LBB28:
  23:tests/testGetId.cpp ****                 //busy wait!
  94              		.loc 1 23 12 is_stmt 0
  95 0090 93070000 		li	a5,0
  96              	.L5:
  97              	.LVL11:
  23:tests/testGetId.cpp ****                 //busy wait!
  98              		.loc 1 23 21 is_stmt 1
  99 0094 37C72D00 		li	a4,2998272
 100 0098 1307F76B 		addi	a4,a4,1727
 101 009c E362F7F8 		bgtu	a5,a4,.L4
  23:tests/testGetId.cpp ****                 //busy wait!
 102              		.loc 1 23 1
 103 00a0 93871700 		addi	a5,a5,1
 104              	.LVL12:
 105 00a4 6FF01FFF 		j	.L5
 106              	.LVL13:
 107              	.L1:
 108              	.LBE28:
 109              	.LBE29:
 110              	.LBE26:
 111              	.LBE25:
  16:tests/testGetId.cpp **** 
 112              		.loc 1 16 5 is_stmt 0
 113 00a8 83308101 		ld	ra,24(sp)
 114              		.cfi_restore 1
 115 00ac 03340101 		ld	s0,16(sp)
 116              		.cfi_restore 8
 117              		.cfi_def_cfa 2, 32
 118 00b0 83348100 		ld	s1,8(sp)
 119              		.cfi_restore 9
GAS LISTING /tmp/ccSR5ZOo.s 			page 4


 120              	.LVL14:
 121 00b4 03390100 		ld	s2,0(sp)
 122              		.cfi_restore 18
 123 00b8 13010102 		addi	sp,sp,32
 124              		.cfi_def_cfa_offset 0
 125 00bc 67800000 		jr	ra
 126              		.cfi_endproc
 127              	.LFE32:
 129              		.section	.rodata._ZN10WorkerBMod3runEv.str1.8,"aMS",@progbits,1
 130              		.align	3
 131              	.LC2:
 132 0000 423A204D 		.string	"B: MyID: "
 132      7949443A 
 132      2000
 133              		.section	.text._ZN10WorkerBMod3runEv,"axG",@progbits,_ZN10WorkerBMod3runEv,comdat
 134              		.align	2
 135              		.weak	_ZN10WorkerBMod3runEv
 137              	_ZN10WorkerBMod3runEv:
 138              	.LFB37:
  34:tests/testGetId.cpp ****         }
  35:tests/testGetId.cpp ****     }
  36:tests/testGetId.cpp **** };
  37:tests/testGetId.cpp **** 
  38:tests/testGetId.cpp **** class WorkerBMod: public Thread {
  39:tests/testGetId.cpp **** public:
  40:tests/testGetId.cpp ****     WorkerBMod(): Thread() {}
  41:tests/testGetId.cpp **** 
  42:tests/testGetId.cpp ****     void run() override {
 139              		.loc 1 42 10 is_stmt 1
 140              		.cfi_startproc
 141              	.LVL15:
 142 0000 130101FE 		addi	sp,sp,-32
 143              		.cfi_def_cfa_offset 32
 144 0004 233C1100 		sd	ra,24(sp)
 145 0008 23388100 		sd	s0,16(sp)
 146 000c 23349100 		sd	s1,8(sp)
 147 0010 23302101 		sd	s2,0(sp)
 148              		.cfi_offset 1, -8
 149              		.cfi_offset 8, -16
 150              		.cfi_offset 9, -24
 151              		.cfi_offset 18, -32
 152 0014 13040102 		addi	s0,sp,32
 153              		.cfi_def_cfa 8, 0
  43:tests/testGetId.cpp ****         functionBMod(nullptr);
 154              		.loc 1 43 9
 155              	.LVL16:
  44:tests/testGetId.cpp ****     }
  45:tests/testGetId.cpp **** 
  46:tests/testGetId.cpp ****     void functionBMod(void* ptr) {
  47:tests/testGetId.cpp ****         //printString("Evo me u B");
  48:tests/testGetId.cpp ****         for(uint64 i = 0; i< 10; i++) {
 156              		.loc 1 48 9
 157              	.LBB35:
 158              	.LBB36:
 159              		.loc 1 48 20 is_stmt 0
 160 0018 93040000 		li	s1,0
 161 001c 6F00C005 		j	.L12
GAS LISTING /tmp/ccSR5ZOo.s 			page 5


 162              	.LVL17:
 163              	.L10:
 164              	.LBB37:
  49:tests/testGetId.cpp ****             for(uint64 k = 0; k < 3000000; k++) {
  50:tests/testGetId.cpp ****                 //busy wait!
  51:tests/testGetId.cpp ****             }
  52:tests/testGetId.cpp **** //            while(!TCB::readyToPrintB) {
  53:tests/testGetId.cpp **** //
  54:tests/testGetId.cpp **** //            }
  55:tests/testGetId.cpp ****           //  printString("Evo me u B");
  56:tests/testGetId.cpp ****             TCB::readyToPrintB = false;
 165              		.loc 1 56 13 is_stmt 1
 166              		.loc 1 56 32 is_stmt 0
 167 0020 97070000 		la	a5,_ZN3TCB13readyToPrintBE
 167      83B70700 
 168              	.LVL18:
 169 0028 23800700 		sb	zero,0(a5)
  57:tests/testGetId.cpp ****             int idB = getThreadId();
 170              		.loc 1 57 13 is_stmt 1
 171              		.loc 1 57 34 is_stmt 0
 172 002c 97000000 		call	_Z11getThreadIdv@plt
 172      E7800000 
 173              	.LVL19:
 174 0034 13090500 		mv	s2,a0
 175              	.LVL20:
  58:tests/testGetId.cpp ****             printString("B: MyID: ");
 176              		.loc 1 58 13 is_stmt 1
 177              		.loc 1 58 24 is_stmt 0
 178 0038 17050000 		lla	a0,.LC2
 178      13050500 
 179 0040 97000000 		call	_Z11printStringPKc@plt
 179      E7800000 
 180              	.LVL21:
  59:tests/testGetId.cpp ****             printInt(idB);
 181              		.loc 1 59 13 is_stmt 1
 182              		.loc 1 59 21 is_stmt 0
 183 0048 13060000 		li	a2,0
 184 004c 9305A000 		li	a1,10
 185 0050 13050900 		mv	a0,s2
 186 0054 97000000 		call	_Z8printIntiii@plt
 186      E7800000 
 187              	.LVL22:
  60:tests/testGetId.cpp ****             printString("\n");
 188              		.loc 1 60 13 is_stmt 1
 189              		.loc 1 60 24 is_stmt 0
 190 005c 17050000 		lla	a0,.LC1
 190      13050500 
 191 0064 97000000 		call	_Z11printStringPKc@plt
 191      E7800000 
 192              	.LVL23:
  61:tests/testGetId.cpp **** 
  62:tests/testGetId.cpp ****             thread_dispatch();
 193              		.loc 1 62 13 is_stmt 1
 194              		.loc 1 62 28 is_stmt 0
 195 006c 97000000 		call	_Z15thread_dispatchv@plt
 195      E7800000 
 196              	.LVL24:
GAS LISTING /tmp/ccSR5ZOo.s 			page 6


 197              	.LBE37:
  48:tests/testGetId.cpp ****             for(uint64 k = 0; k < 3000000; k++) {
 198              		.loc 1 48 9 is_stmt 1
 199 0074 93841400 		addi	s1,s1,1
 200              	.LVL25:
 201              	.L12:
  48:tests/testGetId.cpp ****             for(uint64 k = 0; k < 3000000; k++) {
 202              		.loc 1 48 28
 203 0078 93079000 		li	a5,9
 204 007c 63EE9700 		bgtu	s1,a5,.L8
 205              	.LBB39:
 206              	.LBB38:
  49:tests/testGetId.cpp ****                 //busy wait!
 207              		.loc 1 49 24 is_stmt 0
 208 0080 93070000 		li	a5,0
 209              	.L11:
 210              	.LVL26:
  49:tests/testGetId.cpp ****                 //busy wait!
 211              		.loc 1 49 33 is_stmt 1
 212 0084 37C72D00 		li	a4,2998272
 213 0088 1307F76B 		addi	a4,a4,1727
 214 008c E36AF7F8 		bgtu	a5,a4,.L10
  49:tests/testGetId.cpp ****                 //busy wait!
 215              		.loc 1 49 13
 216 0090 93871700 		addi	a5,a5,1
 217              	.LVL27:
 218 0094 6FF01FFF 		j	.L11
 219              	.LVL28:
 220              	.L8:
 221              	.LBE38:
 222              	.LBE39:
 223              	.LBE36:
 224              	.LBE35:
  44:tests/testGetId.cpp **** 
 225              		.loc 1 44 5 is_stmt 0
 226 0098 83308101 		ld	ra,24(sp)
 227              		.cfi_restore 1
 228 009c 03340101 		ld	s0,16(sp)
 229              		.cfi_restore 8
 230              		.cfi_def_cfa 2, 32
 231 00a0 83348100 		ld	s1,8(sp)
 232              		.cfi_restore 9
 233              	.LVL29:
 234 00a4 03390100 		ld	s2,0(sp)
 235              		.cfi_restore 18
 236 00a8 13010102 		addi	sp,sp,32
 237              		.cfi_def_cfa_offset 0
 238 00ac 67800000 		jr	ra
 239              		.cfi_endproc
 240              	.LFE37:
 242              		.section	.rodata._ZN10WorkerCMod3runEv.str1.8,"aMS",@progbits,1
 243              		.align	3
 244              	.LC3:
 245 0000 433A204D 		.string	"C: MyID: "
 245      7949443A 
 245      2000
 246              		.section	.text._ZN10WorkerCMod3runEv,"axG",@progbits,_ZN10WorkerCMod3runEv,comdat
GAS LISTING /tmp/ccSR5ZOo.s 			page 7


 247              		.align	2
 248              		.weak	_ZN10WorkerCMod3runEv
 250              	_ZN10WorkerCMod3runEv:
 251              	.LFB42:
  63:tests/testGetId.cpp ****         }
  64:tests/testGetId.cpp ****     }
  65:tests/testGetId.cpp **** };
  66:tests/testGetId.cpp **** 
  67:tests/testGetId.cpp **** class WorkerCMod: public Thread {
  68:tests/testGetId.cpp **** public:
  69:tests/testGetId.cpp ****     WorkerCMod():Thread() {}
  70:tests/testGetId.cpp **** 
  71:tests/testGetId.cpp ****     void run() override {
 252              		.loc 1 71 10 is_stmt 1
 253              		.cfi_startproc
 254              	.LVL30:
 255 0000 130101FE 		addi	sp,sp,-32
 256              		.cfi_def_cfa_offset 32
 257 0004 233C1100 		sd	ra,24(sp)
 258 0008 23388100 		sd	s0,16(sp)
 259 000c 23349100 		sd	s1,8(sp)
 260 0010 23302101 		sd	s2,0(sp)
 261              		.cfi_offset 1, -8
 262              		.cfi_offset 8, -16
 263              		.cfi_offset 9, -24
 264              		.cfi_offset 18, -32
 265 0014 13040102 		addi	s0,sp,32
 266              		.cfi_def_cfa 8, 0
  72:tests/testGetId.cpp ****         functionCMod(nullptr);
 267              		.loc 1 72 9
 268              	.LVL31:
  73:tests/testGetId.cpp ****     }
  74:tests/testGetId.cpp **** 
  75:tests/testGetId.cpp ****     void functionCMod(void* ptr) {
  76:tests/testGetId.cpp ****         for(uint64 i = 0; i < 10; i++) {
 269              		.loc 1 76 9
 270              	.LBB45:
 271              	.LBB46:
 272              		.loc 1 76 20 is_stmt 0
 273 0018 93040000 		li	s1,0
 274 001c 6F00C005 		j	.L18
 275              	.LVL32:
 276              	.L16:
 277              	.LBB47:
  77:tests/testGetId.cpp ****             for(uint64 k = 0; k < 3000000; k++) {
  78:tests/testGetId.cpp ****                 //busy wait!
  79:tests/testGetId.cpp ****             }
  80:tests/testGetId.cpp **** //            while(!TCB::readyToPrintC) {
  81:tests/testGetId.cpp **** //               // printString("....!");
  82:tests/testGetId.cpp **** //            }
  83:tests/testGetId.cpp ****             TCB::readyToPrintC = false;
 278              		.loc 1 83 13 is_stmt 1
 279              		.loc 1 83 32 is_stmt 0
 280 0020 97070000 		la	a5,_ZN3TCB13readyToPrintCE
 280      83B70700 
 281              	.LVL33:
 282 0028 23800700 		sb	zero,0(a5)
GAS LISTING /tmp/ccSR5ZOo.s 			page 8


  84:tests/testGetId.cpp ****             int idC = getThreadId();
 283              		.loc 1 84 13 is_stmt 1
 284              		.loc 1 84 34 is_stmt 0
 285 002c 97000000 		call	_Z11getThreadIdv@plt
 285      E7800000 
 286              	.LVL34:
 287 0034 13090500 		mv	s2,a0
 288              	.LVL35:
  85:tests/testGetId.cpp ****             printString("C: MyID: ");
 289              		.loc 1 85 13 is_stmt 1
 290              		.loc 1 85 24 is_stmt 0
 291 0038 17050000 		lla	a0,.LC3
 291      13050500 
 292 0040 97000000 		call	_Z11printStringPKc@plt
 292      E7800000 
 293              	.LVL36:
  86:tests/testGetId.cpp ****             printInt(idC);
 294              		.loc 1 86 13 is_stmt 1
 295              		.loc 1 86 21 is_stmt 0
 296 0048 13060000 		li	a2,0
 297 004c 9305A000 		li	a1,10
 298 0050 13050900 		mv	a0,s2
 299 0054 97000000 		call	_Z8printIntiii@plt
 299      E7800000 
 300              	.LVL37:
  87:tests/testGetId.cpp ****             printString("\n");
 301              		.loc 1 87 13 is_stmt 1
 302              		.loc 1 87 24 is_stmt 0
 303 005c 17050000 		lla	a0,.LC1
 303      13050500 
 304 0064 97000000 		call	_Z11printStringPKc@plt
 304      E7800000 
 305              	.LVL38:
  88:tests/testGetId.cpp **** 
  89:tests/testGetId.cpp ****             thread_dispatch();
 306              		.loc 1 89 13 is_stmt 1
 307              		.loc 1 89 28 is_stmt 0
 308 006c 97000000 		call	_Z15thread_dispatchv@plt
 308      E7800000 
 309              	.LVL39:
 310              	.LBE47:
  76:tests/testGetId.cpp ****             for(uint64 k = 0; k < 3000000; k++) {
 311              		.loc 1 76 9 is_stmt 1
 312 0074 93841400 		addi	s1,s1,1
 313              	.LVL40:
 314              	.L18:
  76:tests/testGetId.cpp ****             for(uint64 k = 0; k < 3000000; k++) {
 315              		.loc 1 76 29
 316 0078 93079000 		li	a5,9
 317 007c 63EE9700 		bgtu	s1,a5,.L14
 318              	.LBB49:
 319              	.LBB48:
  77:tests/testGetId.cpp ****                 //busy wait!
 320              		.loc 1 77 24 is_stmt 0
 321 0080 93070000 		li	a5,0
 322              	.L17:
 323              	.LVL41:
GAS LISTING /tmp/ccSR5ZOo.s 			page 9


  77:tests/testGetId.cpp ****                 //busy wait!
 324              		.loc 1 77 33 is_stmt 1
 325 0084 37C72D00 		li	a4,2998272
 326 0088 1307F76B 		addi	a4,a4,1727
 327 008c E36AF7F8 		bgtu	a5,a4,.L16
  77:tests/testGetId.cpp ****                 //busy wait!
 328              		.loc 1 77 13
 329 0090 93871700 		addi	a5,a5,1
 330              	.LVL42:
 331 0094 6FF01FFF 		j	.L17
 332              	.LVL43:
 333              	.L14:
 334              	.LBE48:
 335              	.LBE49:
 336              	.LBE46:
 337              	.LBE45:
  73:tests/testGetId.cpp **** 
 338              		.loc 1 73 5 is_stmt 0
 339 0098 83308101 		ld	ra,24(sp)
 340              		.cfi_restore 1
 341 009c 03340101 		ld	s0,16(sp)
 342              		.cfi_restore 8
 343              		.cfi_def_cfa 2, 32
 344 00a0 83348100 		ld	s1,8(sp)
 345              		.cfi_restore 9
 346              	.LVL44:
 347 00a4 03390100 		ld	s2,0(sp)
 348              		.cfi_restore 18
 349 00a8 13010102 		addi	sp,sp,32
 350              		.cfi_def_cfa_offset 0
 351 00ac 67800000 		jr	ra
 352              		.cfi_endproc
 353              	.LFE42:
 355              		.section	.text._ZN10WorkerAModD2Ev,"axG",@progbits,_ZN10WorkerAModD5Ev,comdat
 356              		.align	2
 357              		.weak	_ZN10WorkerAModD2Ev
 359              	_ZN10WorkerAModD2Ev:
 360              	.LFB57:
   9:tests/testGetId.cpp **** public:
 361              		.loc 1 9 7 is_stmt 1
 362              		.cfi_startproc
 363              	.LVL45:
 364 0000 130101FF 		addi	sp,sp,-16
 365              		.cfi_def_cfa_offset 16
 366 0004 23341100 		sd	ra,8(sp)
 367 0008 23308100 		sd	s0,0(sp)
 368              		.cfi_offset 1, -8
 369              		.cfi_offset 8, -16
 370 000c 13040101 		addi	s0,sp,16
 371              		.cfi_def_cfa 8, 0
 372              	.LBB50:
   9:tests/testGetId.cpp **** public:
 373              		.loc 1 9 7 is_stmt 0
 374 0010 97070000 		lla	a5,_ZTV10WorkerAMod+16
 374      93870700 
 375 0018 2330F500 		sd	a5,0(a0)
 376 001c 97000000 		call	_ZN6ThreadD2Ev@plt
GAS LISTING /tmp/ccSR5ZOo.s 			page 10


 376      E7800000 
 377              	.LVL46:
 378              	.LBE50:
 379 0024 83308100 		ld	ra,8(sp)
 380              		.cfi_restore 1
 381 0028 03340100 		ld	s0,0(sp)
 382              		.cfi_restore 8
 383              		.cfi_def_cfa 2, 16
 384 002c 13010101 		addi	sp,sp,16
 385              		.cfi_def_cfa_offset 0
 386 0030 67800000 		jr	ra
 387              		.cfi_endproc
 388              	.LFE57:
 390              		.weak	_ZN10WorkerAModD1Ev
 391              		.set	_ZN10WorkerAModD1Ev,_ZN10WorkerAModD2Ev
 392              		.section	.text._ZN10WorkerAModD0Ev,"axG",@progbits,_ZN10WorkerAModD5Ev,comdat
 393              		.align	2
 394              		.weak	_ZN10WorkerAModD0Ev
 396              	_ZN10WorkerAModD0Ev:
 397              	.LFB59:
   9:tests/testGetId.cpp **** public:
 398              		.loc 1 9 7 is_stmt 1
 399              		.cfi_startproc
 400              	.LVL47:
 401 0000 130101FE 		addi	sp,sp,-32
 402              		.cfi_def_cfa_offset 32
 403 0004 233C1100 		sd	ra,24(sp)
 404 0008 23388100 		sd	s0,16(sp)
 405 000c 23349100 		sd	s1,8(sp)
 406              		.cfi_offset 1, -8
 407              		.cfi_offset 8, -16
 408              		.cfi_offset 9, -24
 409 0010 13040102 		addi	s0,sp,32
 410              		.cfi_def_cfa 8, 0
 411 0014 93040500 		mv	s1,a0
 412              	.LVL48:
 413              	.LBB51:
 414              	.LBB52:
   9:tests/testGetId.cpp **** public:
 415              		.loc 1 9 7 is_stmt 0
 416 0018 97070000 		lla	a5,_ZTV10WorkerAMod+16
 416      93870700 
 417 0020 2330F500 		sd	a5,0(a0)
 418 0024 97000000 		call	_ZN6ThreadD2Ev@plt
 418      E7800000 
 419              	.LVL49:
 420              	.LBE52:
 421              	.LBE51:
 422 002c 13850400 		mv	a0,s1
 423 0030 97000000 		call	_ZdlPv@plt
 423      E7800000 
 424              	.LVL50:
 425 0038 83308101 		ld	ra,24(sp)
 426              		.cfi_restore 1
 427 003c 03340101 		ld	s0,16(sp)
 428              		.cfi_restore 8
 429              		.cfi_def_cfa 2, 32
GAS LISTING /tmp/ccSR5ZOo.s 			page 11


 430 0040 83348100 		ld	s1,8(sp)
 431              		.cfi_restore 9
 432              	.LVL51:
 433 0044 13010102 		addi	sp,sp,32
 434              		.cfi_def_cfa_offset 0
 435 0048 67800000 		jr	ra
 436              		.cfi_endproc
 437              	.LFE59:
 439              		.section	.text._ZN10WorkerBModD2Ev,"axG",@progbits,_ZN10WorkerBModD5Ev,comdat
 440              		.align	2
 441              		.weak	_ZN10WorkerBModD2Ev
 443              	_ZN10WorkerBModD2Ev:
 444              	.LFB53:
  38:tests/testGetId.cpp **** public:
 445              		.loc 1 38 7 is_stmt 1
 446              		.cfi_startproc
 447              	.LVL52:
 448 0000 130101FF 		addi	sp,sp,-16
 449              		.cfi_def_cfa_offset 16
 450 0004 23341100 		sd	ra,8(sp)
 451 0008 23308100 		sd	s0,0(sp)
 452              		.cfi_offset 1, -8
 453              		.cfi_offset 8, -16
 454 000c 13040101 		addi	s0,sp,16
 455              		.cfi_def_cfa 8, 0
 456              	.LBB53:
  38:tests/testGetId.cpp **** public:
 457              		.loc 1 38 7 is_stmt 0
 458 0010 97070000 		lla	a5,_ZTV10WorkerBMod+16
 458      93870700 
 459 0018 2330F500 		sd	a5,0(a0)
 460 001c 97000000 		call	_ZN6ThreadD2Ev@plt
 460      E7800000 
 461              	.LVL53:
 462              	.LBE53:
 463 0024 83308100 		ld	ra,8(sp)
 464              		.cfi_restore 1
 465 0028 03340100 		ld	s0,0(sp)
 466              		.cfi_restore 8
 467              		.cfi_def_cfa 2, 16
 468 002c 13010101 		addi	sp,sp,16
 469              		.cfi_def_cfa_offset 0
 470 0030 67800000 		jr	ra
 471              		.cfi_endproc
 472              	.LFE53:
 474              		.weak	_ZN10WorkerBModD1Ev
 475              		.set	_ZN10WorkerBModD1Ev,_ZN10WorkerBModD2Ev
 476              		.section	.text._ZN10WorkerBModD0Ev,"axG",@progbits,_ZN10WorkerBModD5Ev,comdat
 477              		.align	2
 478              		.weak	_ZN10WorkerBModD0Ev
 480              	_ZN10WorkerBModD0Ev:
 481              	.LFB55:
  38:tests/testGetId.cpp **** public:
 482              		.loc 1 38 7 is_stmt 1
 483              		.cfi_startproc
 484              	.LVL54:
 485 0000 130101FE 		addi	sp,sp,-32
GAS LISTING /tmp/ccSR5ZOo.s 			page 12


 486              		.cfi_def_cfa_offset 32
 487 0004 233C1100 		sd	ra,24(sp)
 488 0008 23388100 		sd	s0,16(sp)
 489 000c 23349100 		sd	s1,8(sp)
 490              		.cfi_offset 1, -8
 491              		.cfi_offset 8, -16
 492              		.cfi_offset 9, -24
 493 0010 13040102 		addi	s0,sp,32
 494              		.cfi_def_cfa 8, 0
 495 0014 93040500 		mv	s1,a0
 496              	.LVL55:
 497              	.LBB54:
 498              	.LBB55:
  38:tests/testGetId.cpp **** public:
 499              		.loc 1 38 7 is_stmt 0
 500 0018 97070000 		lla	a5,_ZTV10WorkerBMod+16
 500      93870700 
 501 0020 2330F500 		sd	a5,0(a0)
 502 0024 97000000 		call	_ZN6ThreadD2Ev@plt
 502      E7800000 
 503              	.LVL56:
 504              	.LBE55:
 505              	.LBE54:
 506 002c 13850400 		mv	a0,s1
 507 0030 97000000 		call	_ZdlPv@plt
 507      E7800000 
 508              	.LVL57:
 509 0038 83308101 		ld	ra,24(sp)
 510              		.cfi_restore 1
 511 003c 03340101 		ld	s0,16(sp)
 512              		.cfi_restore 8
 513              		.cfi_def_cfa 2, 32
 514 0040 83348100 		ld	s1,8(sp)
 515              		.cfi_restore 9
 516              	.LVL58:
 517 0044 13010102 		addi	sp,sp,32
 518              		.cfi_def_cfa_offset 0
 519 0048 67800000 		jr	ra
 520              		.cfi_endproc
 521              	.LFE55:
 523              		.section	.text._ZN10WorkerCModD2Ev,"axG",@progbits,_ZN10WorkerCModD5Ev,comdat
 524              		.align	2
 525              		.weak	_ZN10WorkerCModD2Ev
 527              	_ZN10WorkerCModD2Ev:
 528              	.LFB49:
  67:tests/testGetId.cpp **** public:
 529              		.loc 1 67 7 is_stmt 1
 530              		.cfi_startproc
 531              	.LVL59:
 532 0000 130101FF 		addi	sp,sp,-16
 533              		.cfi_def_cfa_offset 16
 534 0004 23341100 		sd	ra,8(sp)
 535 0008 23308100 		sd	s0,0(sp)
 536              		.cfi_offset 1, -8
 537              		.cfi_offset 8, -16
 538 000c 13040101 		addi	s0,sp,16
 539              		.cfi_def_cfa 8, 0
GAS LISTING /tmp/ccSR5ZOo.s 			page 13


 540              	.LBB56:
  67:tests/testGetId.cpp **** public:
 541              		.loc 1 67 7 is_stmt 0
 542 0010 97070000 		lla	a5,_ZTV10WorkerCMod+16
 542      93870700 
 543 0018 2330F500 		sd	a5,0(a0)
 544 001c 97000000 		call	_ZN6ThreadD2Ev@plt
 544      E7800000 
 545              	.LVL60:
 546              	.LBE56:
 547 0024 83308100 		ld	ra,8(sp)
 548              		.cfi_restore 1
 549 0028 03340100 		ld	s0,0(sp)
 550              		.cfi_restore 8
 551              		.cfi_def_cfa 2, 16
 552 002c 13010101 		addi	sp,sp,16
 553              		.cfi_def_cfa_offset 0
 554 0030 67800000 		jr	ra
 555              		.cfi_endproc
 556              	.LFE49:
 558              		.weak	_ZN10WorkerCModD1Ev
 559              		.set	_ZN10WorkerCModD1Ev,_ZN10WorkerCModD2Ev
 560              		.section	.text._ZN10WorkerCModD0Ev,"axG",@progbits,_ZN10WorkerCModD5Ev,comdat
 561              		.align	2
 562              		.weak	_ZN10WorkerCModD0Ev
 564              	_ZN10WorkerCModD0Ev:
 565              	.LFB51:
  67:tests/testGetId.cpp **** public:
 566              		.loc 1 67 7 is_stmt 1
 567              		.cfi_startproc
 568              	.LVL61:
 569 0000 130101FE 		addi	sp,sp,-32
 570              		.cfi_def_cfa_offset 32
 571 0004 233C1100 		sd	ra,24(sp)
 572 0008 23388100 		sd	s0,16(sp)
 573 000c 23349100 		sd	s1,8(sp)
 574              		.cfi_offset 1, -8
 575              		.cfi_offset 8, -16
 576              		.cfi_offset 9, -24
 577 0010 13040102 		addi	s0,sp,32
 578              		.cfi_def_cfa 8, 0
 579 0014 93040500 		mv	s1,a0
 580              	.LVL62:
 581              	.LBB57:
 582              	.LBB58:
  67:tests/testGetId.cpp **** public:
 583              		.loc 1 67 7 is_stmt 0
 584 0018 97070000 		lla	a5,_ZTV10WorkerCMod+16
 584      93870700 
 585 0020 2330F500 		sd	a5,0(a0)
 586 0024 97000000 		call	_ZN6ThreadD2Ev@plt
 586      E7800000 
 587              	.LVL63:
 588              	.LBE58:
 589              	.LBE57:
 590 002c 13850400 		mv	a0,s1
 591 0030 97000000 		call	_ZdlPv@plt
GAS LISTING /tmp/ccSR5ZOo.s 			page 14


 591      E7800000 
 592              	.LVL64:
 593 0038 83308101 		ld	ra,24(sp)
 594              		.cfi_restore 1
 595 003c 03340101 		ld	s0,16(sp)
 596              		.cfi_restore 8
 597              		.cfi_def_cfa 2, 32
 598 0040 83348100 		ld	s1,8(sp)
 599              		.cfi_restore 9
 600              	.LVL65:
 601 0044 13010102 		addi	sp,sp,32
 602              		.cfi_def_cfa_offset 0
 603 0048 67800000 		jr	ra
 604              		.cfi_endproc
 605              	.LFE51:
 607              		.section	.rodata.str1.8,"aMS",@progbits,1
 608              		.align	3
 609              	.LC4:
 610 0000 54687265 		.string	"ThreadA created!\n"
 610      61644120 
 610      63726561 
 610      74656421 
 610      0A00
 611 0012 00000000 		.align	3
 611      0000
 612              	.LC5:
 613 0018 54687265 		.string	"ThreadB created!\n"
 613      61644220 
 613      63726561 
 613      74656421 
 613      0A00
 614 002a 00000000 		.align	3
 614      0000
 615              	.LC6:
 616 0030 54687265 		.string	"ThreadC created!\n"
 616      61644320 
 616      63726561 
 616      74656421 
 616      0A00
 617              		.text
 618              		.align	2
 619              		.globl	_Z9testGetIdv
 621              	_Z9testGetIdv:
 622              	.LFB44:
  90:tests/testGetId.cpp ****         }
  91:tests/testGetId.cpp ****     }
  92:tests/testGetId.cpp **** };
  93:tests/testGetId.cpp **** 
  94:tests/testGetId.cpp **** void testGetId()
  95:tests/testGetId.cpp **** {
 623              		.loc 1 95 1 is_stmt 1
 624              		.cfi_startproc
 625              		.cfi_personality 0x9b,DW.ref.__gxx_personality_v0
 626              		.cfi_lsda 0x1b,.LLSDA44
 627 0000 130101FD 		addi	sp,sp,-48
 628              		.cfi_def_cfa_offset 48
 629 0004 23341102 		sd	ra,40(sp)
GAS LISTING /tmp/ccSR5ZOo.s 			page 15


 630 0008 23308102 		sd	s0,32(sp)
 631 000c 233C9100 		sd	s1,24(sp)
 632 0010 23382101 		sd	s2,16(sp)
 633 0014 23343101 		sd	s3,8(sp)
 634              		.cfi_offset 1, -8
 635              		.cfi_offset 8, -16
 636              		.cfi_offset 9, -24
 637              		.cfi_offset 18, -32
 638              		.cfi_offset 19, -40
 639 0018 13040103 		addi	s0,sp,48
 640              		.cfi_def_cfa 8, 0
  96:tests/testGetId.cpp **** 
  97:tests/testGetId.cpp ****     Thread *threads[5];
 641              		.loc 1 97 5
  98:tests/testGetId.cpp **** 
  99:tests/testGetId.cpp ****     threads[0] = new WorkerAMod();
 642              		.loc 1 99 5
 643              		.loc 1 99 33 is_stmt 0
 644 001c 13050002 		li	a0,32
 645              	.LEHB0:
 646 0020 97000000 		call	_Znwm@plt
 646      E7800000 
 647              	.LVL66:
 648              	.LEHE0:
 649 0028 93090500 		mv	s3,a0
 650              	.LVL67:
 651              	.LEHB1:
 652              	.LBB59:
 653              	.LBB60:
  11:tests/testGetId.cpp ****     //static bool timeForAToPrint;
 654              		.loc 1 11 25
 655 002c 97000000 		call	_ZN6ThreadC2Ev@plt
 655      E7800000 
 656              	.LVL68:
 657              	.LEHE1:
 658 0034 97070000 		lla	a5,_ZTV10WorkerAMod+16
 658      93870700 
 659 003c 23B0F900 		sd	a5,0(s3)
 660              	.LVL69:
 661              	.LBE60:
 662              	.LBE59:
 100:tests/testGetId.cpp ****     printString("ThreadA created!\n");
 663              		.loc 1 100 5 is_stmt 1
 664              		.loc 1 100 16 is_stmt 0
 665 0040 17050000 		lla	a0,.LC4
 665      13050500 
 666              	.LEHB2:
 667 0048 97000000 		call	_Z11printStringPKc@plt
 667      E7800000 
 668              	.LVL70:
 101:tests/testGetId.cpp **** 
 102:tests/testGetId.cpp ****     threads[1] = new WorkerBMod();
 669              		.loc 1 102 5 is_stmt 1
 670              		.loc 1 102 33 is_stmt 0
 671 0050 13050002 		li	a0,32
 672 0054 97000000 		call	_Znwm@plt
 672      E7800000 
GAS LISTING /tmp/ccSR5ZOo.s 			page 16


 673              	.LVL71:
 674              	.LEHE2:
 675 005c 13090500 		mv	s2,a0
 676              	.LVL72:
 677              	.LEHB3:
 678              	.LBB61:
 679              	.LBB62:
  40:tests/testGetId.cpp **** 
 680              		.loc 1 40 26
 681 0060 97000000 		call	_ZN6ThreadC2Ev@plt
 681      E7800000 
 682              	.LVL73:
 683              	.LEHE3:
 684 0068 97070000 		lla	a5,_ZTV10WorkerBMod+16
 684      93870700 
 685 0070 2330F900 		sd	a5,0(s2)
 686              	.LVL74:
 687              	.LBE62:
 688              	.LBE61:
 103:tests/testGetId.cpp ****     printString("ThreadB created!\n");
 689              		.loc 1 103 5 is_stmt 1
 690              		.loc 1 103 16 is_stmt 0
 691 0074 17050000 		lla	a0,.LC5
 691      13050500 
 692              	.LEHB4:
 693 007c 97000000 		call	_Z11printStringPKc@plt
 693      E7800000 
 694              	.LVL75:
 104:tests/testGetId.cpp **** 
 105:tests/testGetId.cpp ****     threads[2] = new WorkerCMod();
 695              		.loc 1 105 5 is_stmt 1
 696              		.loc 1 105 33 is_stmt 0
 697 0084 13050002 		li	a0,32
 698 0088 97000000 		call	_Znwm@plt
 698      E7800000 
 699              	.LVL76:
 700              	.LEHE4:
 701 0090 93040500 		mv	s1,a0
 702              	.LVL77:
 703              	.LEHB5:
 704              	.LBB63:
 705              	.LBB64:
  69:tests/testGetId.cpp **** 
 706              		.loc 1 69 25
 707 0094 97000000 		call	_ZN6ThreadC2Ev@plt
 707      E7800000 
 708              	.LVL78:
 709              	.LEHE5:
 710 009c 97070000 		lla	a5,_ZTV10WorkerCMod+16
 710      93870700 
 711 00a4 23B0F400 		sd	a5,0(s1)
 712              	.LVL79:
 713              	.LBE64:
 714              	.LBE63:
 106:tests/testGetId.cpp ****     printString("ThreadC created!\n");
 715              		.loc 1 106 5 is_stmt 1
 716              		.loc 1 106 16 is_stmt 0
GAS LISTING /tmp/ccSR5ZOo.s 			page 17


 717 00a8 17050000 		lla	a0,.LC6
 717      13050500 
 718              	.LEHB6:
 719 00b0 97000000 		call	_Z11printStringPKc@plt
 719      E7800000 
 720              	.LVL80:
 107:tests/testGetId.cpp **** 
 108:tests/testGetId.cpp ****     threads[0]->start();
 721              		.loc 1 108 5 is_stmt 1
 722              		.loc 1 108 22 is_stmt 0
 723 00b8 13850900 		mv	a0,s3
 724 00bc 97000000 		call	_ZN6Thread5startEv@plt
 724      E7800000 
 725              	.LVL81:
 109:tests/testGetId.cpp ****     threads[1]->start();
 726              		.loc 1 109 5 is_stmt 1
 727              		.loc 1 109 22 is_stmt 0
 728 00c4 13050900 		mv	a0,s2
 729 00c8 97000000 		call	_ZN6Thread5startEv@plt
 729      E7800000 
 730              	.LVL82:
 110:tests/testGetId.cpp ****     threads[2]->start();
 731              		.loc 1 110 5 is_stmt 1
 732              		.loc 1 110 22 is_stmt 0
 733 00d0 13850400 		mv	a0,s1
 734 00d4 97000000 		call	_ZN6Thread5startEv@plt
 734      E7800000 
 735              	.LVL83:
 111:tests/testGetId.cpp **** 
 112:tests/testGetId.cpp ****     threads[0]->join();
 736              		.loc 1 112 5 is_stmt 1
 737              		.loc 1 112 21 is_stmt 0
 738 00dc 13850900 		mv	a0,s3
 739 00e0 97000000 		call	_ZN6Thread4joinEv@plt
 739      E7800000 
 740              	.LVL84:
 113:tests/testGetId.cpp ****     threads[1]->join();
 741              		.loc 1 113 5 is_stmt 1
 742              		.loc 1 113 21 is_stmt 0
 743 00e8 13050900 		mv	a0,s2
 744 00ec 97000000 		call	_ZN6Thread4joinEv@plt
 744      E7800000 
 745              	.LVL85:
 114:tests/testGetId.cpp ****     threads[2]->join();
 746              		.loc 1 114 5 is_stmt 1
 747              		.loc 1 114 21 is_stmt 0
 748 00f4 13850400 		mv	a0,s1
 749 00f8 97000000 		call	_ZN6Thread4joinEv@plt
 749      E7800000 
 750              	.LVL86:
 115:tests/testGetId.cpp **** }...
 751              		.loc 1 115 1
 752 0100 83308102 		ld	ra,40(sp)
 753              		.cfi_remember_state
 754              		.cfi_restore 1
 755 0104 03340102 		ld	s0,32(sp)
 756              		.cfi_restore 8
GAS LISTING /tmp/ccSR5ZOo.s 			page 18


 757              		.cfi_def_cfa 2, 48
 758 0108 83348101 		ld	s1,24(sp)
 759              		.cfi_restore 9
 760 010c 03390101 		ld	s2,16(sp)
 761              		.cfi_restore 18
 762 0110 83398100 		ld	s3,8(sp)
 763              		.cfi_restore 19
 764 0114 13010103 		addi	sp,sp,48
 765              		.cfi_def_cfa_offset 0
 766 0118 67800000 		jr	ra
 767              	.LVL87:
 768              	.L36:
 769              		.cfi_restore_state
 770 011c 93040500 		mv	s1,a0
  99:tests/testGetId.cpp ****     threads[0] = new WorkerAMod();
 771              		.loc 1 99 33
 772 0120 13850900 		mv	a0,s3
 773 0124 97000000 		call	_ZdlPv@plt
 773      E7800000 
 774              	.LVL88:
 775 012c 13850400 		mv	a0,s1
 776 0130 97000000 		call	_Unwind_Resume@plt
 776      E7800000 
 777              	.LVL89:
 778              	.L37:
 779 0138 93040500 		mv	s1,a0
 102:tests/testGetId.cpp ****     threads[1] = new WorkerBMod();
 780              		.loc 1 102 33
 781 013c 13050900 		mv	a0,s2
 782 0140 97000000 		call	_ZdlPv@plt
 782      E7800000 
 783              	.LVL90:
 784 0148 13850400 		mv	a0,s1
 785 014c 97000000 		call	_Unwind_Resume@plt
 785      E7800000 
 786              	.LVL91:
 787              	.L38:
 788 0154 13090500 		mv	s2,a0
 105:tests/testGetId.cpp ****     threads[2] = new WorkerCMod();
 789              		.loc 1 105 33
 790 0158 13850400 		mv	a0,s1
 791 015c 97000000 		call	_ZdlPv@plt
 791      E7800000 
 792              	.LVL92:
 793 0164 13050900 		mv	a0,s2
 794 0168 97000000 		call	_Unwind_Resume@plt
 794      E7800000 
 795              	.LVL93:
 796              	.LEHE6:
 797              		.cfi_endproc
 798              	.LFE44:
 799              		.globl	__gxx_personality_v0
 800              		.section	.gcc_except_table,"a",@progbits
 801              	.LLSDA44:
 802 0000 FF       		.byte	0xff
 803 0001 FF       		.byte	0xff
 804 0002 03       		.byte	0x3
GAS LISTING /tmp/ccSR5ZOo.s 			page 19


 805 0003 5B       		.byte	0x5b
 806 0004 00000000 		.4byte	.LEHB0-.LFB44
 807 0008 00000000 		.4byte	.LEHE0-.LEHB0
 808 000c 00000000 		.4byte	0
 809 0010 00       		.byte	0
 810 0011 00000000 		.4byte	.LEHB1-.LFB44
 811 0015 00000000 		.4byte	.LEHE1-.LEHB1
 812 0019 00000000 		.4byte	.L36-.LFB44
 813 001d 00       		.byte	0
 814 001e 00000000 		.4byte	.LEHB2-.LFB44
 815 0022 00000000 		.4byte	.LEHE2-.LEHB2
 816 0026 00000000 		.4byte	0
 817 002a 00       		.byte	0
 818 002b 00000000 		.4byte	.LEHB3-.LFB44
 819 002f 00000000 		.4byte	.LEHE3-.LEHB3
 820 0033 00000000 		.4byte	.L37-.LFB44
 821 0037 00       		.byte	0
 822 0038 00000000 		.4byte	.LEHB4-.LFB44
 823 003c 00000000 		.4byte	.LEHE4-.LEHB4
 824 0040 00000000 		.4byte	0
 825 0044 00       		.byte	0
 826 0045 00000000 		.4byte	.LEHB5-.LFB44
 827 0049 00000000 		.4byte	.LEHE5-.LEHB5
 828 004d 00000000 		.4byte	.L38-.LFB44
 829 0051 00       		.byte	0
 830 0052 00000000 		.4byte	.LEHB6-.LFB44
 831 0056 00000000 		.4byte	.LEHE6-.LEHB6
 832 005a 00000000 		.4byte	0
 833 005e 00       		.byte	0
 834              		.text
 836              		.weak	_ZTV10WorkerAMod
 837              		.section	.data.rel.ro.local._ZTV10WorkerAMod,"awG",@progbits,_ZTV10WorkerAMod,comdat
 838              		.align	3
 841              	_ZTV10WorkerAMod:
 842 0000 00000000 		.dword	0
 842      00000000 
 843 0008 00000000 		.dword	0
 843      00000000 
 844 0010 00000000 		.dword	_ZN10WorkerAModD1Ev
 844      00000000 
 845 0018 00000000 		.dword	_ZN10WorkerAModD0Ev
 845      00000000 
 846 0020 00000000 		.dword	_ZN10WorkerAMod3runEv
 846      00000000 
 847              		.weak	_ZTV10WorkerBMod
 848              		.section	.data.rel.ro.local._ZTV10WorkerBMod,"awG",@progbits,_ZTV10WorkerBMod,comdat
 849              		.align	3
 852              	_ZTV10WorkerBMod:
 853 0000 00000000 		.dword	0
 853      00000000 
 854 0008 00000000 		.dword	0
 854      00000000 
 855 0010 00000000 		.dword	_ZN10WorkerBModD1Ev
 855      00000000 
 856 0018 00000000 		.dword	_ZN10WorkerBModD0Ev
 856      00000000 
 857 0020 00000000 		.dword	_ZN10WorkerBMod3runEv
GAS LISTING /tmp/ccSR5ZOo.s 			page 20


 857      00000000 
 858              		.weak	_ZTV10WorkerCMod
 859              		.section	.data.rel.ro.local._ZTV10WorkerCMod,"awG",@progbits,_ZTV10WorkerCMod,comdat
 860              		.align	3
 863              	_ZTV10WorkerCMod:
 864 0000 00000000 		.dword	0
 864      00000000 
 865 0008 00000000 		.dword	0
 865      00000000 
 866 0010 00000000 		.dword	_ZN10WorkerCModD1Ev
 866      00000000 
 867 0018 00000000 		.dword	_ZN10WorkerCModD0Ev
 867      00000000 
 868 0020 00000000 		.dword	_ZN10WorkerCMod3runEv
 868      00000000 
 869              		.text
 870              	.Letext0:
 871              		.file 2 "tests/../h/../lib/hw.h"
 872              		.file 3 "tests/../h/syscall_cpp.hpp"
 873              		.file 4 "tests/printing.hpp"
 874              		.file 5 "tests/../h/syscall_c.hpp"
 3685              		.align	3
 3688              	DW.ref.__gxx_personality_v0:
 3689 0000 00000000 		.dword	__gxx_personality_v0
 3689      00000000 
 3690              		.ident	"GCC: (Ubuntu 9.4.0-1ubuntu1~20.04) 9.4.0"
 3691              		.section	.note.GNU-stack,"",@progbits
GAS LISTING /tmp/ccSR5ZOo.s 			page 21

