GAS LISTING /tmp/ccM8M9aW.s 			page 1


   1              		.file	"userMain.cpp"
   2              		.option pic
   3              		.option norelax
   4              		.text
   5              	.Ltext0:
   6              		.section	.rodata.str1.8,"aMS",@progbits,1
   7              		.align	3
   8              	.LC0:
   9 0000 556E6573 		.string	"Unesite broj testa? [1-9]\n"
   9      69746520 
   9      62726F6A 
   9      20746573 
   9      74613F20 
  10 001b 00000000 		.align	3
  10      00
  11              	.LC1:
  12 0020 54455354 		.string	"TEST 1 (zadatak 2, niti C API i sinhrona promena konteksta)\n"
  12      20312028 
  12      7A616461 
  12      74616B20 
  12      322C206E 
  13 005d 000000   		.align	3
  14              	.LC2:
  15 0060 54455354 		.string	"TEST 2 (zadatak 2., niti CPP API i sinhrona promena konteksta)\n"
  15      20322028 
  15      7A616461 
  15      74616B20 
  15      322E2C20 
  16              		.align	3
  17              	.LC3:
  18 00a0 54455354 		.string	"TEST 3 (zadatak 3., kompletan C API sa semaforima, sinhrona promena konteksta)\n"
  18      20332028 
  18      7A616461 
  18      74616B20 
  18      332E2C20 
  19              		.align	3
  20              	.LC4:
  21 00f0 54455354 		.string	"TEST 4 (zadatak 3., kompletan CPP API sa semaforima, sinhrona promena konteksta)\n"
  21      20342028 
  21      7A616461 
  21      74616B20 
  21      332E2C20 
  22 0142 00000000 		.align	3
  22      0000
  23              	.LC5:
  24 0148 54455354 		.string	"TEST 5 (zadatak 4., thread_sleep test C API)\n"
  24      20352028 
  24      7A616461 
  24      74616B20 
  24      342E2C20 
  25 0176 0000     		.align	3
  26              	.LC6:
  27 0178 54455354 		.string	"TEST 6 (zadatak 4. CPP API i asinhrona promena konteksta)\n"
  27      20362028 
  27      7A616461 
  27      74616B20 
  27      342E2043 
GAS LISTING /tmp/ccM8M9aW.s 			page 2


  28 01b3 00000000 		.align	3
  28      00
  29              	.LC7:
  30 01b8 54657374 		.string	"Test se nije uspesno zavrsio\n"
  30      20736520 
  30      6E696A65 
  30      20757370 
  30      65736E6F 
  31 01d6 0000     		.align	3
  32              	.LC8:
  33 01d8 54455354 		.string	"TEST 7 (zadatak 2., testiranje da li se korisnicki kod izvrsava u korisnickom rezimu)\n"
  33      20372028 
  33      7A616461 
  33      74616B20 
  33      322E2C20 
  34 022f 00       		.align	3
  35              	.LC9:
  36 0230 54657374 		.string	"Test se uspesno zavrsio\n"
  36      20736520 
  36      75737065 
  36      736E6F20 
  36      7A617672 
  37 0249 00000000 		.align	3
  37      000000
  38              	.LC10:
  39 0250 54455354 		.string	"TEST 8 (zadatak 2., testiranje da li se korisnicki kod izvrsava u korisnickom rezimu)\n"
  39      20382028 
  39      7A616461 
  39      74616B20 
  39      322E2C20 
  40 02a7 00       		.align	3
  41              	.LC11:
  42 02a8 54455354 		.string	"TEST 9 (zadatak 2., testiranje da li se korisnicki kod izvrsava u korisnickom rezimu)\n"
  42      20392028 
  42      7A616461 
  42      74616B20 
  42      322E2C20 
  43 02ff 00       		.align	3
  44              	.LC12:
  45 0300 4E697374 		.string	"Niste uneli odgovarajuci broj za test\n"
  45      6520756E 
  45      656C6920 
  45      6F64676F 
  45      76617261 
  46              		.text
  47              		.align	2
  48              		.globl	_Z8userMainv
  50              	_Z8userMainv:
  51              	.LFB0:
  52              		.file 1 "tests/userMain.cpp"
   1:tests/userMain.cpp **** #include "printing.hpp"
   2:tests/userMain.cpp **** 
   3:tests/userMain.cpp **** #define LEVEL_1_IMPLEMENTED 0
   4:tests/userMain.cpp **** #define LEVEL_2_IMPLEMENTED 1
   5:tests/userMain.cpp **** #define LEVEL_3_IMPLEMENTED 1
   6:tests/userMain.cpp **** #define LEVEL_4_IMPLEMENTED 1
   7:tests/userMain.cpp **** 
GAS LISTING /tmp/ccM8M9aW.s 			page 3


   8:tests/userMain.cpp **** #if LEVEL_2_IMPLEMENTED == 1
   9:tests/userMain.cpp **** // TEST 1 (zadatak 2, niti C API i sinhrona promena konteksta)
  10:tests/userMain.cpp **** #include "../tests/Threads_C_API_test.hpp"
  11:tests/userMain.cpp **** // TEST 2 (zadatak 2., niti CPP API i sinhrona promena konteksta)
  12:tests/userMain.cpp **** #include "../tests/Threads_CPP_API_test.hpp"
  13:tests/userMain.cpp **** // TEST 7 (zadatak 2., testiranje da li se korisnicki kod izvrsava u korisnickom rezimu)
  14:tests/userMain.cpp **** #include "../tests/System_Mode_test.hpp"
  15:tests/userMain.cpp **** #endif
  16:tests/userMain.cpp **** 
  17:tests/userMain.cpp **** #if LEVEL_3_IMPLEMENTED == 1
  18:tests/userMain.cpp **** // TEST 3 (zadatak 3., kompletan C API sa semaforima, sinhrona promena konteksta)
  19:tests/userMain.cpp **** #include "../tests/ConsumerProducer_C_API_test.hpp"
  20:tests/userMain.cpp **** // TEST 4 (zadatak 3., kompletan CPP API sa semaforima, sinhrona promena konteksta)
  21:tests/userMain.cpp **** #include "../tests/ConsumerProducer_CPP_Sync_API_test.hpp"
  22:tests/userMain.cpp **** #endif
  23:tests/userMain.cpp **** 
  24:tests/userMain.cpp **** #if LEVEL_4_IMPLEMENTED == 1
  25:tests/userMain.cpp **** // TEST 5 (zadatak 4., thread_sleep test C API)
  26:tests/userMain.cpp **** #include "../tests/ThreadSleep_C_API_test.hpp"
  27:tests/userMain.cpp **** // TEST 6 (zadatak 4. CPP API i asinhrona promena konteksta)
  28:tests/userMain.cpp **** #include "../tests/ConsumerProducer_CPP_API_test.hpp"
  29:tests/userMain.cpp **** #include "System_Mode_test.hpp"
  30:tests/userMain.cpp **** #include "testGetId.h"
  31:tests/userMain.cpp **** #include "../tests/testBarrier.hpp"
  32:tests/userMain.cpp **** 
  33:tests/userMain.cpp **** #endif
  34:tests/userMain.cpp **** 
  35:tests/userMain.cpp **** void userMain() {
  53              		.loc 1 35 17
  54              		.cfi_startproc
  55 0000 130101FE 		addi	sp,sp,-32
  56              		.cfi_def_cfa_offset 32
  57 0004 233C1100 		sd	ra,24(sp)
  58 0008 23388100 		sd	s0,16(sp)
  59 000c 23349100 		sd	s1,8(sp)
  60              		.cfi_offset 1, -8
  61              		.cfi_offset 8, -16
  62              		.cfi_offset 9, -24
  63 0010 13040102 		addi	s0,sp,32
  64              		.cfi_def_cfa 8, 0
  36:tests/userMain.cpp ****     printString("Unesite broj testa? [1-9]\n");
  65              		.loc 1 36 5
  66              		.loc 1 36 16 is_stmt 0
  67 0014 17050000 		lla	a0,.LC0
  67      13050500 
  68 001c 97000000 		call	_Z11printStringPKc@plt
  68      E7800000 
  69              	.LVL0:
  37:tests/userMain.cpp ****     int test = getc() - '0';
  70              		.loc 1 37 5 is_stmt 1
  71              		.loc 1 37 20 is_stmt 0
  72 0024 97000000 		call	_Z4getcv@plt
  72      E7800000 
  73              	.LVL1:
  74              		.loc 1 37 25
  75 002c 9B0405FD 		addiw	s1,a0,-48
  76              	.LVL2:
GAS LISTING /tmp/ccM8M9aW.s 			page 4


  38:tests/userMain.cpp ****     getc(); // Enter posle broja
  77              		.loc 1 38 5 is_stmt 1
  78              		.loc 1 38 9 is_stmt 0
  79 0030 97000000 		call	_Z4getcv@plt
  79      E7800000 
  80              	.LVL3:
  39:tests/userMain.cpp **** 
  40:tests/userMain.cpp ****     if ((test >= 1 && test <= 2) || test == 7 || test == 8 || test == 9) {
  81              		.loc 1 40 5 is_stmt 1
  41:tests/userMain.cpp ****         if (LEVEL_2_IMPLEMENTED == 0) {
  42:tests/userMain.cpp ****             printString("Nije navedeno da je zadatak 2 implementiran\n");
  43:tests/userMain.cpp ****             return;
  44:tests/userMain.cpp ****         }
  45:tests/userMain.cpp ****     }
  46:tests/userMain.cpp **** 
  47:tests/userMain.cpp ****     if (test >= 3 && test <= 4) {
  82              		.loc 1 47 5
  48:tests/userMain.cpp ****         if (LEVEL_3_IMPLEMENTED == 0) {
  49:tests/userMain.cpp ****             printString("Nije navedeno da je zadatak 3 implementiran\n");
  50:tests/userMain.cpp ****             return;
  51:tests/userMain.cpp ****         }
  52:tests/userMain.cpp ****     }
  53:tests/userMain.cpp **** 
  54:tests/userMain.cpp ****     if (test >= 5 && test <= 6) {
  83              		.loc 1 54 5
  55:tests/userMain.cpp ****         if (LEVEL_4_IMPLEMENTED == 0) {
  56:tests/userMain.cpp ****             printString("Nije navedeno da je zadatak 4 implementiran\n");
  57:tests/userMain.cpp ****             return;
  58:tests/userMain.cpp ****         }
  59:tests/userMain.cpp ****     }
  60:tests/userMain.cpp **** 
  61:tests/userMain.cpp ****     switch (test) {
  84              		.loc 1 61 5
  85 0038 93079000 		li	a5,9
  86 003c 63EE9714 		bgtu	s1,a5,.L2
  87 0040 93942400 		slli	s1,s1,2
  88 0044 17070000 		lla	a4,.L4
  88      13070700 
  89 004c B384E400 		add	s1,s1,a4
  90 0050 83A70400 		lw	a5,0(s1)
  91 0054 B387E700 		add	a5,a5,a4
  92 0058 67800700 		jr	a5
  93              		.section	.rodata
  94              		.align	2
  95              		.align	2
  96              	.L4:
  97 0000 00000000 		.word	.L2-.L4
  98 0004 00000000 		.word	.L12-.L4
  99 0008 00000000 		.word	.L11-.L4
 100 000c 00000000 		.word	.L10-.L4
 101 0010 00000000 		.word	.L9-.L4
 102 0014 00000000 		.word	.L8-.L4
 103 0018 00000000 		.word	.L7-.L4
 104 001c 00000000 		.word	.L6-.L4
 105 0020 00000000 		.word	.L5-.L4
 106 0024 00000000 		.word	.L3-.L4
 107              		.text
GAS LISTING /tmp/ccM8M9aW.s 			page 5


 108              	.L12:
  62:tests/userMain.cpp ****         case 1:
 109              		.loc 1 62 9
  63:tests/userMain.cpp **** #if LEVEL_2_IMPLEMENTED == 1
  64:tests/userMain.cpp ****             Threads_C_API_test();
 110              		.loc 1 64 13
 111              		.loc 1 64 31 is_stmt 0
 112 005c 97000000 		call	_Z18Threads_C_API_testv@plt
 112      E7800000 
 113              	.LVL4:
  65:tests/userMain.cpp ****             printString("TEST 1 (zadatak 2, niti C API i sinhrona promena konteksta)\n");
 114              		.loc 1 65 13 is_stmt 1
 115              		.loc 1 65 24 is_stmt 0
 116 0064 17050000 		lla	a0,.LC1
 116      13050500 
 117 006c 97000000 		call	_Z11printStringPKc@plt
 117      E7800000 
 118              	.LVL5:
  66:tests/userMain.cpp **** #endif
  67:tests/userMain.cpp ****             break;
 119              		.loc 1 67 13 is_stmt 1
 120              	.L1:
  68:tests/userMain.cpp ****         case 2:
  69:tests/userMain.cpp **** #if LEVEL_2_IMPLEMENTED == 1
  70:tests/userMain.cpp ****             Threads_CPP_API_test();
  71:tests/userMain.cpp ****             printString("TEST 2 (zadatak 2., niti CPP API i sinhrona promena konteksta)\n");
  72:tests/userMain.cpp **** #endif
  73:tests/userMain.cpp ****             break;
  74:tests/userMain.cpp ****         case 3:
  75:tests/userMain.cpp **** #if LEVEL_3_IMPLEMENTED == 1
  76:tests/userMain.cpp ****             producerConsumer_C_API();
  77:tests/userMain.cpp ****             printString("TEST 3 (zadatak 3., kompletan C API sa semaforima, sinhrona promena kontek
  78:tests/userMain.cpp **** #endif
  79:tests/userMain.cpp ****             break;
  80:tests/userMain.cpp ****         case 4:
  81:tests/userMain.cpp **** #if LEVEL_3_IMPLEMENTED == 1
  82:tests/userMain.cpp ****             producerConsumer_CPP_Sync_API();
  83:tests/userMain.cpp ****             printString("TEST 4 (zadatak 3., kompletan CPP API sa semaforima, sinhrona promena kont
  84:tests/userMain.cpp **** #endif
  85:tests/userMain.cpp ****             break;
  86:tests/userMain.cpp ****         case 5:
  87:tests/userMain.cpp **** #if LEVEL_4_IMPLEMENTED == 1
  88:tests/userMain.cpp ****             testSleeping();
  89:tests/userMain.cpp ****             printString("TEST 5 (zadatak 4., thread_sleep test C API)\n");
  90:tests/userMain.cpp **** #endif
  91:tests/userMain.cpp ****             break;
  92:tests/userMain.cpp ****         case 6:
  93:tests/userMain.cpp **** #if LEVEL_4_IMPLEMENTED == 1
  94:tests/userMain.cpp ****             testConsumerProducer();
  95:tests/userMain.cpp ****             printString("TEST 6 (zadatak 4. CPP API i asinhrona promena konteksta)\n");
  96:tests/userMain.cpp **** #endif
  97:tests/userMain.cpp ****             break;
  98:tests/userMain.cpp ****         case 7:
  99:tests/userMain.cpp **** #if LEVEL_2_IMPLEMENTED == 1
 100:tests/userMain.cpp ****             System_Mode_test();
 101:tests/userMain.cpp ****             printString("Test se nije uspesno zavrsio\n");
 102:tests/userMain.cpp ****             printString("TEST 7 (zadatak 2., testiranje da li se korisnicki kod izvrsava u korisnic
GAS LISTING /tmp/ccM8M9aW.s 			page 6


 103:tests/userMain.cpp **** #endif
 104:tests/userMain.cpp ****             break;
 105:tests/userMain.cpp ****         case 8:
 106:tests/userMain.cpp **** #if LEVEL_2_IMPLEMENTED == 1
 107:tests/userMain.cpp ****             testGetId();
 108:tests/userMain.cpp ****             printString("Test se uspesno zavrsio\n");
 109:tests/userMain.cpp ****             printString("TEST 8 (zadatak 2., testiranje da li se korisnicki kod izvrsava u korisnic
 110:tests/userMain.cpp **** #endif
 111:tests/userMain.cpp ****             break;
 112:tests/userMain.cpp ****         case 9:
 113:tests/userMain.cpp **** #if LEVEL_2_IMPLEMENTED == 1
 114:tests/userMain.cpp ****             testBarrier();
 115:tests/userMain.cpp ****             printString("Test se uspesno zavrsio\n");
 116:tests/userMain.cpp ****             printString("TEST 9 (zadatak 2., testiranje da li se korisnicki kod izvrsava u korisnic
 117:tests/userMain.cpp **** #endif
 118:tests/userMain.cpp ****             break;
 119:tests/userMain.cpp ****         default:
 120:tests/userMain.cpp ****             printString("Niste uneli odgovarajuci broj za test\n");
 121:tests/userMain.cpp ****     }
 122:tests/userMain.cpp **** }...
 121              		.loc 1 122 1 is_stmt 0
 122 0074 83308101 		ld	ra,24(sp)
 123              		.cfi_remember_state
 124              		.cfi_restore 1
 125 0078 03340101 		ld	s0,16(sp)
 126              		.cfi_restore 8
 127              		.cfi_def_cfa 2, 32
 128 007c 83348100 		ld	s1,8(sp)
 129              		.cfi_restore 9
 130 0080 13010102 		addi	sp,sp,32
 131              		.cfi_def_cfa_offset 0
 132 0084 67800000 		jr	ra
 133              	.L11:
 134              		.cfi_restore_state
  68:tests/userMain.cpp ****         case 2:
 135              		.loc 1 68 9 is_stmt 1
  70:tests/userMain.cpp ****             Threads_CPP_API_test();
 136              		.loc 1 70 13
  70:tests/userMain.cpp ****             Threads_CPP_API_test();
 137              		.loc 1 70 33 is_stmt 0
 138 0088 97000000 		call	_Z20Threads_CPP_API_testv@plt
 138      E7800000 
 139              	.LVL6:
  71:tests/userMain.cpp ****             printString("TEST 2 (zadatak 2., niti CPP API i sinhrona promena konteksta)\n");
 140              		.loc 1 71 13 is_stmt 1
  71:tests/userMain.cpp ****             printString("TEST 2 (zadatak 2., niti CPP API i sinhrona promena konteksta)\n");
 141              		.loc 1 71 24 is_stmt 0
 142 0090 17050000 		lla	a0,.LC2
 142      13050500 
 143 0098 97000000 		call	_Z11printStringPKc@plt
 143      E7800000 
 144              	.LVL7:
  73:tests/userMain.cpp ****             break;
 145              		.loc 1 73 13 is_stmt 1
 146 00a0 6FF05FFD 		j	.L1
 147              	.L10:
  74:tests/userMain.cpp ****         case 3:
GAS LISTING /tmp/ccM8M9aW.s 			page 7


 148              		.loc 1 74 9
  76:tests/userMain.cpp ****             producerConsumer_C_API();
 149              		.loc 1 76 13
  76:tests/userMain.cpp ****             producerConsumer_C_API();
 150              		.loc 1 76 35 is_stmt 0
 151 00a4 97000000 		call	_Z22producerConsumer_C_APIv@plt
 151      E7800000 
 152              	.LVL8:
  77:tests/userMain.cpp ****             printString("TEST 3 (zadatak 3., kompletan C API sa semaforima, sinhrona promena kontek
 153              		.loc 1 77 13 is_stmt 1
  77:tests/userMain.cpp ****             printString("TEST 3 (zadatak 3., kompletan C API sa semaforima, sinhrona promena kontek
 154              		.loc 1 77 24 is_stmt 0
 155 00ac 17050000 		lla	a0,.LC3
 155      13050500 
 156 00b4 97000000 		call	_Z11printStringPKc@plt
 156      E7800000 
 157              	.LVL9:
  79:tests/userMain.cpp ****             break;
 158              		.loc 1 79 13 is_stmt 1
 159 00bc 6FF09FFB 		j	.L1
 160              	.L9:
  80:tests/userMain.cpp ****         case 4:
 161              		.loc 1 80 9
  82:tests/userMain.cpp ****             producerConsumer_CPP_Sync_API();
 162              		.loc 1 82 13
  82:tests/userMain.cpp ****             producerConsumer_CPP_Sync_API();
 163              		.loc 1 82 42 is_stmt 0
 164 00c0 97000000 		call	_Z29producerConsumer_CPP_Sync_APIv@plt
 164      E7800000 
 165              	.LVL10:
  83:tests/userMain.cpp ****             printString("TEST 4 (zadatak 3., kompletan CPP API sa semaforima, sinhrona promena kont
 166              		.loc 1 83 13 is_stmt 1
  83:tests/userMain.cpp ****             printString("TEST 4 (zadatak 3., kompletan CPP API sa semaforima, sinhrona promena kont
 167              		.loc 1 83 24 is_stmt 0
 168 00c8 17050000 		lla	a0,.LC4
 168      13050500 
 169 00d0 97000000 		call	_Z11printStringPKc@plt
 169      E7800000 
 170              	.LVL11:
  85:tests/userMain.cpp ****             break;
 171              		.loc 1 85 13 is_stmt 1
 172 00d8 6FF0DFF9 		j	.L1
 173              	.L8:
  86:tests/userMain.cpp ****         case 5:
 174              		.loc 1 86 9
  88:tests/userMain.cpp ****             testSleeping();
 175              		.loc 1 88 13
  88:tests/userMain.cpp ****             testSleeping();
 176              		.loc 1 88 25 is_stmt 0
 177 00dc 97000000 		call	_Z12testSleepingv@plt
 177      E7800000 
 178              	.LVL12:
  89:tests/userMain.cpp ****             printString("TEST 5 (zadatak 4., thread_sleep test C API)\n");
 179              		.loc 1 89 13 is_stmt 1
  89:tests/userMain.cpp ****             printString("TEST 5 (zadatak 4., thread_sleep test C API)\n");
 180              		.loc 1 89 24 is_stmt 0
 181 00e4 17050000 		lla	a0,.LC5
GAS LISTING /tmp/ccM8M9aW.s 			page 8


 181      13050500 
 182 00ec 97000000 		call	_Z11printStringPKc@plt
 182      E7800000 
 183              	.LVL13:
  91:tests/userMain.cpp ****             break;
 184              		.loc 1 91 13 is_stmt 1
 185 00f4 6FF01FF8 		j	.L1
 186              	.L7:
  92:tests/userMain.cpp ****         case 6:
 187              		.loc 1 92 9
  94:tests/userMain.cpp ****             testConsumerProducer();
 188              		.loc 1 94 13
  94:tests/userMain.cpp ****             testConsumerProducer();
 189              		.loc 1 94 33 is_stmt 0
 190 00f8 97000000 		call	_Z20testConsumerProducerv@plt
 190      E7800000 
 191              	.LVL14:
  95:tests/userMain.cpp ****             printString("TEST 6 (zadatak 4. CPP API i asinhrona promena konteksta)\n");
 192              		.loc 1 95 13 is_stmt 1
  95:tests/userMain.cpp ****             printString("TEST 6 (zadatak 4. CPP API i asinhrona promena konteksta)\n");
 193              		.loc 1 95 24 is_stmt 0
 194 0100 17050000 		lla	a0,.LC6
 194      13050500 
 195 0108 97000000 		call	_Z11printStringPKc@plt
 195      E7800000 
 196              	.LVL15:
  97:tests/userMain.cpp ****             break;
 197              		.loc 1 97 13 is_stmt 1
 198 0110 6FF05FF6 		j	.L1
 199              	.L6:
  98:tests/userMain.cpp ****         case 7:
 200              		.loc 1 98 9
 100:tests/userMain.cpp ****             System_Mode_test();
 201              		.loc 1 100 13
 100:tests/userMain.cpp ****             System_Mode_test();
 202              		.loc 1 100 29 is_stmt 0
 203 0114 97000000 		call	_Z16System_Mode_testv@plt
 203      E7800000 
 204              	.LVL16:
 101:tests/userMain.cpp ****             printString("Test se nije uspesno zavrsio\n");
 205              		.loc 1 101 13 is_stmt 1
 101:tests/userMain.cpp ****             printString("Test se nije uspesno zavrsio\n");
 206              		.loc 1 101 24 is_stmt 0
 207 011c 17050000 		lla	a0,.LC7
 207      13050500 
 208 0124 97000000 		call	_Z11printStringPKc@plt
 208      E7800000 
 209              	.LVL17:
 102:tests/userMain.cpp ****             printString("TEST 7 (zadatak 2., testiranje da li se korisnicki kod izvrsava u korisnic
 210              		.loc 1 102 13 is_stmt 1
 102:tests/userMain.cpp ****             printString("TEST 7 (zadatak 2., testiranje da li se korisnicki kod izvrsava u korisnic
 211              		.loc 1 102 24 is_stmt 0
 212 012c 17050000 		lla	a0,.LC8
 212      13050500 
 213 0134 97000000 		call	_Z11printStringPKc@plt
 213      E7800000 
 214              	.LVL18:
GAS LISTING /tmp/ccM8M9aW.s 			page 9


 104:tests/userMain.cpp ****             break;
 215              		.loc 1 104 13 is_stmt 1
 216 013c 6FF09FF3 		j	.L1
 217              	.L5:
 105:tests/userMain.cpp ****         case 8:
 218              		.loc 1 105 9
 107:tests/userMain.cpp ****             testGetId();
 219              		.loc 1 107 13
 107:tests/userMain.cpp ****             testGetId();
 220              		.loc 1 107 22 is_stmt 0
 221 0140 97000000 		call	_Z9testGetIdv@plt
 221      E7800000 
 222              	.LVL19:
 108:tests/userMain.cpp ****             printString("Test se uspesno zavrsio\n");
 223              		.loc 1 108 13 is_stmt 1
 108:tests/userMain.cpp ****             printString("Test se uspesno zavrsio\n");
 224              		.loc 1 108 24 is_stmt 0
 225 0148 17050000 		lla	a0,.LC9
 225      13050500 
 226 0150 97000000 		call	_Z11printStringPKc@plt
 226      E7800000 
 227              	.LVL20:
 109:tests/userMain.cpp ****             printString("TEST 8 (zadatak 2., testiranje da li se korisnicki kod izvrsava u korisnic
 228              		.loc 1 109 13 is_stmt 1
 109:tests/userMain.cpp ****             printString("TEST 8 (zadatak 2., testiranje da li se korisnicki kod izvrsava u korisnic
 229              		.loc 1 109 24 is_stmt 0
 230 0158 17050000 		lla	a0,.LC10
 230      13050500 
 231 0160 97000000 		call	_Z11printStringPKc@plt
 231      E7800000 
 232              	.LVL21:
 111:tests/userMain.cpp ****             break;
 233              		.loc 1 111 13 is_stmt 1
 234 0168 6FF0DFF0 		j	.L1
 235              	.L3:
 112:tests/userMain.cpp ****         case 9:
 236              		.loc 1 112 9
 114:tests/userMain.cpp ****             testBarrier();
 237              		.loc 1 114 13
 114:tests/userMain.cpp ****             testBarrier();
 238              		.loc 1 114 24 is_stmt 0
 239 016c 97000000 		call	_Z11testBarrierv@plt
 239      E7800000 
 240              	.LVL22:
 115:tests/userMain.cpp ****             printString("Test se uspesno zavrsio\n");
 241              		.loc 1 115 13 is_stmt 1
 115:tests/userMain.cpp ****             printString("Test se uspesno zavrsio\n");
 242              		.loc 1 115 24 is_stmt 0
 243 0174 17050000 		lla	a0,.LC9
 243      13050500 
 244 017c 97000000 		call	_Z11printStringPKc@plt
 244      E7800000 
 245              	.LVL23:
 116:tests/userMain.cpp ****             printString("TEST 9 (zadatak 2., testiranje da li se korisnicki kod izvrsava u korisnic
 246              		.loc 1 116 13 is_stmt 1
 116:tests/userMain.cpp ****             printString("TEST 9 (zadatak 2., testiranje da li se korisnicki kod izvrsava u korisnic
 247              		.loc 1 116 24 is_stmt 0
GAS LISTING /tmp/ccM8M9aW.s 			page 10


 248 0184 17050000 		lla	a0,.LC11
 248      13050500 
 249 018c 97000000 		call	_Z11printStringPKc@plt
 249      E7800000 
 250              	.LVL24:
 118:tests/userMain.cpp ****             break;
 251              		.loc 1 118 13 is_stmt 1
 252 0194 6FF01FEE 		j	.L1
 253              	.L2:
 119:tests/userMain.cpp ****         default:
 254              		.loc 1 119 9
 120:tests/userMain.cpp ****             printString("Niste uneli odgovarajuci broj za test\n");
 255              		.loc 1 120 13
 120:tests/userMain.cpp ****             printString("Niste uneli odgovarajuci broj za test\n");
 256              		.loc 1 120 24 is_stmt 0
 257 0198 17050000 		lla	a0,.LC12
 257      13050500 
 258 01a0 97000000 		call	_Z11printStringPKc@plt
 258      E7800000 
 259              	.LVL25:
 260 01a8 6FF0DFEC 		j	.L1
 261              		.cfi_endproc
 262              	.LFE0:
 264              	.Letext0:
 265              		.file 2 "tests/../h/../lib/hw.h"
 266              		.file 3 "tests/printing.hpp"
 267              		.file 4 "tests/../h/syscall_c.hpp"
 268              		.file 5 "tests/../tests/Threads_C_API_test.hpp"
 269              		.file 6 "tests/../tests/Threads_CPP_API_test.hpp"
 270              		.file 7 "tests/../tests/ConsumerProducer_C_API_test.hpp"
 271              		.file 8 "tests/../tests/ConsumerProducer_CPP_Sync_API_test.hpp"
 272              		.file 9 "tests/../tests/ThreadSleep_C_API_test.hpp"
 273              		.file 10 "tests/../tests/ConsumerProducer_CPP_API_test.hpp"
 274              		.file 11 "tests/../tests/System_Mode_test.hpp"
 275              		.file 12 "tests/testGetId.h"
 276              		.file 13 "tests/../tests/testBarrier.hpp"
GAS LISTING /tmp/ccM8M9aW.s 			page 11


DEFINED SYMBOLS
                            *ABS*:0000000000000000 userMain.cpp
     /tmp/ccM8M9aW.s:50     .text:0000000000000000 _Z8userMainv
     /tmp/ccM8M9aW.s:54     .text:0000000000000000 .L0 
     /tmp/ccM8M9aW.s:55     .text:0000000000000000 .L0 
     /tmp/ccM8M9aW.s:56     .text:0000000000000004 .L0 
     /tmp/ccM8M9aW.s:60     .text:0000000000000010 .L0 
     /tmp/ccM8M9aW.s:61     .text:0000000000000010 .L0 
     /tmp/ccM8M9aW.s:62     .text:0000000000000010 .L0 
     /tmp/ccM8M9aW.s:64     .text:0000000000000014 .L0 
     /tmp/ccM8M9aW.s:66     .text:0000000000000014 .L0 
     /tmp/ccM8M9aW.s:67     .text:0000000000000014 .L0 
     /tmp/ccM8M9aW.s:71     .text:0000000000000024 .L0 
     /tmp/ccM8M9aW.s:72     .text:0000000000000024 .L0 
     /tmp/ccM8M9aW.s:75     .text:000000000000002c .L0 
     /tmp/ccM8M9aW.s:78     .text:0000000000000030 .L0 
     /tmp/ccM8M9aW.s:79     .text:0000000000000030 .L0 
     /tmp/ccM8M9aW.s:82     .text:0000000000000038 .L0 
     /tmp/ccM8M9aW.s:83     .text:0000000000000038 .L0 
     /tmp/ccM8M9aW.s:84     .text:0000000000000038 .L0 
     /tmp/ccM8M9aW.s:85     .text:0000000000000038 .L0 
     /tmp/ccM8M9aW.s:110    .text:000000000000005c .L0 
     /tmp/ccM8M9aW.s:111    .text:000000000000005c .L0 
     /tmp/ccM8M9aW.s:112    .text:000000000000005c .L0 
     /tmp/ccM8M9aW.s:115    .text:0000000000000064 .L0 
     /tmp/ccM8M9aW.s:116    .text:0000000000000064 .L0 
     /tmp/ccM8M9aW.s:121    .text:0000000000000074 .L0 
     /tmp/ccM8M9aW.s:122    .text:0000000000000074 .L0 
     /tmp/ccM8M9aW.s:123    .text:0000000000000078 .L0 
     /tmp/ccM8M9aW.s:124    .text:0000000000000078 .L0 
     /tmp/ccM8M9aW.s:126    .text:000000000000007c .L0 
     /tmp/ccM8M9aW.s:127    .text:000000000000007c .L0 
     /tmp/ccM8M9aW.s:129    .text:0000000000000080 .L0 
     /tmp/ccM8M9aW.s:131    .text:0000000000000084 .L0 
     /tmp/ccM8M9aW.s:134    .text:0000000000000088 .L0 
     /tmp/ccM8M9aW.s:136    .text:0000000000000088 .L0 
     /tmp/ccM8M9aW.s:137    .text:0000000000000088 .L0 
     /tmp/ccM8M9aW.s:138    .text:0000000000000088 .L0 
     /tmp/ccM8M9aW.s:141    .text:0000000000000090 .L0 
     /tmp/ccM8M9aW.s:142    .text:0000000000000090 .L0 
     /tmp/ccM8M9aW.s:146    .text:00000000000000a0 .L0 
     /tmp/ccM8M9aW.s:149    .text:00000000000000a4 .L0 
     /tmp/ccM8M9aW.s:150    .text:00000000000000a4 .L0 
     /tmp/ccM8M9aW.s:151    .text:00000000000000a4 .L0 
     /tmp/ccM8M9aW.s:154    .text:00000000000000ac .L0 
     /tmp/ccM8M9aW.s:155    .text:00000000000000ac .L0 
     /tmp/ccM8M9aW.s:159    .text:00000000000000bc .L0 
     /tmp/ccM8M9aW.s:162    .text:00000000000000c0 .L0 
     /tmp/ccM8M9aW.s:163    .text:00000000000000c0 .L0 
     /tmp/ccM8M9aW.s:164    .text:00000000000000c0 .L0 
     /tmp/ccM8M9aW.s:167    .text:00000000000000c8 .L0 
     /tmp/ccM8M9aW.s:168    .text:00000000000000c8 .L0 
     /tmp/ccM8M9aW.s:172    .text:00000000000000d8 .L0 
     /tmp/ccM8M9aW.s:175    .text:00000000000000dc .L0 
     /tmp/ccM8M9aW.s:176    .text:00000000000000dc .L0 
     /tmp/ccM8M9aW.s:177    .text:00000000000000dc .L0 
     /tmp/ccM8M9aW.s:180    .text:00000000000000e4 .L0 
GAS LISTING /tmp/ccM8M9aW.s 			page 12


     /tmp/ccM8M9aW.s:181    .text:00000000000000e4 .L0 
     /tmp/ccM8M9aW.s:185    .text:00000000000000f4 .L0 
     /tmp/ccM8M9aW.s:188    .text:00000000000000f8 .L0 
     /tmp/ccM8M9aW.s:189    .text:00000000000000f8 .L0 
     /tmp/ccM8M9aW.s:190    .text:00000000000000f8 .L0 
     /tmp/ccM8M9aW.s:193    .text:0000000000000100 .L0 
     /tmp/ccM8M9aW.s:194    .text:0000000000000100 .L0 
     /tmp/ccM8M9aW.s:198    .text:0000000000000110 .L0 
     /tmp/ccM8M9aW.s:201    .text:0000000000000114 .L0 
     /tmp/ccM8M9aW.s:202    .text:0000000000000114 .L0 
     /tmp/ccM8M9aW.s:203    .text:0000000000000114 .L0 
     /tmp/ccM8M9aW.s:206    .text:000000000000011c .L0 
     /tmp/ccM8M9aW.s:207    .text:000000000000011c .L0 
     /tmp/ccM8M9aW.s:211    .text:000000000000012c .L0 
     /tmp/ccM8M9aW.s:212    .text:000000000000012c .L0 
     /tmp/ccM8M9aW.s:216    .text:000000000000013c .L0 
     /tmp/ccM8M9aW.s:219    .text:0000000000000140 .L0 
     /tmp/ccM8M9aW.s:220    .text:0000000000000140 .L0 
     /tmp/ccM8M9aW.s:221    .text:0000000000000140 .L0 
     /tmp/ccM8M9aW.s:224    .text:0000000000000148 .L0 
     /tmp/ccM8M9aW.s:225    .text:0000000000000148 .L0 
     /tmp/ccM8M9aW.s:229    .text:0000000000000158 .L0 
     /tmp/ccM8M9aW.s:230    .text:0000000000000158 .L0 
     /tmp/ccM8M9aW.s:234    .text:0000000000000168 .L0 
     /tmp/ccM8M9aW.s:237    .text:000000000000016c .L0 
     /tmp/ccM8M9aW.s:238    .text:000000000000016c .L0 
     /tmp/ccM8M9aW.s:239    .text:000000000000016c .L0 
     /tmp/ccM8M9aW.s:242    .text:0000000000000174 .L0 
     /tmp/ccM8M9aW.s:243    .text:0000000000000174 .L0 
     /tmp/ccM8M9aW.s:247    .text:0000000000000184 .L0 
     /tmp/ccM8M9aW.s:248    .text:0000000000000184 .L0 
     /tmp/ccM8M9aW.s:252    .text:0000000000000194 .L0 
     /tmp/ccM8M9aW.s:255    .text:0000000000000198 .L0 
     /tmp/ccM8M9aW.s:256    .text:0000000000000198 .L0 
     /tmp/ccM8M9aW.s:257    .text:0000000000000198 .L0 
     /tmp/ccM8M9aW.s:261    .text:00000000000001ac .L0 
     /tmp/ccM8M9aW.s:277    .text:00000000000001ac .L0 
     /tmp/ccM8M9aW.s:8      .rodata.str1.8:0000000000000000 .LC0
     /tmp/ccM8M9aW.s:67     .text:0000000000000014 .L0 
     /tmp/ccM8M9aW.s:96     .rodata:0000000000000000 .L4
     /tmp/ccM8M9aW.s:88     .text:0000000000000044 .L0 
     /tmp/ccM8M9aW.s:11     .rodata.str1.8:0000000000000020 .LC1
     /tmp/ccM8M9aW.s:116    .text:0000000000000064 .L0 
     /tmp/ccM8M9aW.s:14     .rodata.str1.8:0000000000000060 .LC2
     /tmp/ccM8M9aW.s:142    .text:0000000000000090 .L0 
     /tmp/ccM8M9aW.s:17     .rodata.str1.8:00000000000000a0 .LC3
     /tmp/ccM8M9aW.s:155    .text:00000000000000ac .L0 
     /tmp/ccM8M9aW.s:20     .rodata.str1.8:00000000000000f0 .LC4
     /tmp/ccM8M9aW.s:168    .text:00000000000000c8 .L0 
     /tmp/ccM8M9aW.s:23     .rodata.str1.8:0000000000000148 .LC5
     /tmp/ccM8M9aW.s:181    .text:00000000000000e4 .L0 
     /tmp/ccM8M9aW.s:26     .rodata.str1.8:0000000000000178 .LC6
     /tmp/ccM8M9aW.s:194    .text:0000000000000100 .L0 
     /tmp/ccM8M9aW.s:29     .rodata.str1.8:00000000000001b8 .LC7
     /tmp/ccM8M9aW.s:207    .text:000000000000011c .L0 
     /tmp/ccM8M9aW.s:32     .rodata.str1.8:00000000000001d8 .LC8
     /tmp/ccM8M9aW.s:212    .text:000000000000012c .L0 
GAS LISTING /tmp/ccM8M9aW.s 			page 13


     /tmp/ccM8M9aW.s:35     .rodata.str1.8:0000000000000230 .LC9
     /tmp/ccM8M9aW.s:225    .text:0000000000000148 .L0 
     /tmp/ccM8M9aW.s:38     .rodata.str1.8:0000000000000250 .LC10
     /tmp/ccM8M9aW.s:230    .text:0000000000000158 .L0 
     /tmp/ccM8M9aW.s:243    .text:0000000000000174 .L0 
     /tmp/ccM8M9aW.s:41     .rodata.str1.8:00000000000002a8 .LC11
     /tmp/ccM8M9aW.s:248    .text:0000000000000184 .L0 
     /tmp/ccM8M9aW.s:44     .rodata.str1.8:0000000000000300 .LC12
     /tmp/ccM8M9aW.s:257    .text:0000000000000198 .L0 
     /tmp/ccM8M9aW.s:253    .text:0000000000000198 .L2
     /tmp/ccM8M9aW.s:120    .text:0000000000000074 .L1
     /tmp/ccM8M9aW.s:108    .text:000000000000005c .L12
     /tmp/ccM8M9aW.s:133    .text:0000000000000088 .L11
     /tmp/ccM8M9aW.s:147    .text:00000000000000a4 .L10
     /tmp/ccM8M9aW.s:160    .text:00000000000000c0 .L9
     /tmp/ccM8M9aW.s:173    .text:00000000000000dc .L8
     /tmp/ccM8M9aW.s:186    .text:00000000000000f8 .L7
     /tmp/ccM8M9aW.s:199    .text:0000000000000114 .L6
     /tmp/ccM8M9aW.s:217    .text:0000000000000140 .L5
     /tmp/ccM8M9aW.s:235    .text:000000000000016c .L3
     /tmp/ccM8M9aW.s:685    .debug_abbrev:0000000000000000 .Ldebug_abbrev0
     /tmp/ccM8M9aW.s:993    .debug_str:0000000000000109 .LASF40
     /tmp/ccM8M9aW.s:1005   .debug_str:0000000000000207 .LASF41
     /tmp/ccM8M9aW.s:1043   .debug_str:0000000000000377 .LASF42
     /tmp/ccM8M9aW.s:5      .text:0000000000000000 .Ltext0
     /tmp/ccM8M9aW.s:264    .text:00000000000001ac .Letext0
     /tmp/ccM8M9aW.s:959    .debug_line:0000000000000000 .Ldebug_line0
     /tmp/ccM8M9aW.s:1003   .debug_str:00000000000001fa .LASF0
     /tmp/ccM8M9aW.s:989    .debug_str:00000000000000ea .LASF1
     /tmp/ccM8M9aW.s:981    .debug_str:00000000000000b0 .LASF2
     /tmp/ccM8M9aW.s:969    .debug_str:000000000000003b .LASF4
     /tmp/ccM8M9aW.s:987    .debug_str:00000000000000d8 .LASF3
     /tmp/ccM8M9aW.s:963    .debug_str:0000000000000013 .LASF5
     /tmp/ccM8M9aW.s:961    .debug_str:0000000000000000 .LASF6
     /tmp/ccM8M9aW.s:975    .debug_str:000000000000007b .LASF7
     /tmp/ccM8M9aW.s:1007   .debug_str:000000000000021a .LASF8
     /tmp/ccM8M9aW.s:967    .debug_str:000000000000002d .LASF9
     /tmp/ccM8M9aW.s:1049   .debug_str:00000000000003a9 .LASF10
     /tmp/ccM8M9aW.s:977    .debug_str:000000000000008e .LASF11
     /tmp/ccM8M9aW.s:1035   .debug_str:000000000000033a .LASF12
     /tmp/ccM8M9aW.s:1015   .debug_str:0000000000000267 .LASF13
     /tmp/ccM8M9aW.s:991    .debug_str:00000000000000fd .LASF14
     /tmp/ccM8M9aW.s:971    .debug_str:0000000000000042 .LASF15
     /tmp/ccM8M9aW.s:1011   .debug_str:000000000000023b .LASF16
     /tmp/ccM8M9aW.s:999    .debug_str:00000000000001ec .LASF43
     /tmp/ccM8M9aW.s:1045   .debug_str:0000000000000390 .LASF44
     /tmp/ccM8M9aW.s:51     .text:0000000000000000 .LFB0
     /tmp/ccM8M9aW.s:262    .text:00000000000001ac .LFE0
     /tmp/ccM8M9aW.s:1001   .debug_str:00000000000001f5 .LASF17
     /tmp/ccM8M9aW.s:937    .debug_loc:0000000000000000 .LLST0
     /tmp/ccM8M9aW.s:69     .text:0000000000000024 .LVL0
     /tmp/ccM8M9aW.s:73     .text:000000000000002c .LVL1
     /tmp/ccM8M9aW.s:80     .text:0000000000000038 .LVL3
     /tmp/ccM8M9aW.s:113    .text:0000000000000064 .LVL4
     /tmp/ccM8M9aW.s:118    .text:0000000000000074 .LVL5
     /tmp/ccM8M9aW.s:139    .text:0000000000000090 .LVL6
     /tmp/ccM8M9aW.s:144    .text:00000000000000a0 .LVL7
GAS LISTING /tmp/ccM8M9aW.s 			page 14


     /tmp/ccM8M9aW.s:152    .text:00000000000000ac .LVL8
     /tmp/ccM8M9aW.s:157    .text:00000000000000bc .LVL9
     /tmp/ccM8M9aW.s:165    .text:00000000000000c8 .LVL10
     /tmp/ccM8M9aW.s:170    .text:00000000000000d8 .LVL11
     /tmp/ccM8M9aW.s:178    .text:00000000000000e4 .LVL12
     /tmp/ccM8M9aW.s:183    .text:00000000000000f4 .LVL13
     /tmp/ccM8M9aW.s:191    .text:0000000000000100 .LVL14
     /tmp/ccM8M9aW.s:196    .text:0000000000000110 .LVL15
     /tmp/ccM8M9aW.s:204    .text:000000000000011c .LVL16
     /tmp/ccM8M9aW.s:209    .text:000000000000012c .LVL17
     /tmp/ccM8M9aW.s:214    .text:000000000000013c .LVL18
     /tmp/ccM8M9aW.s:222    .text:0000000000000148 .LVL19
     /tmp/ccM8M9aW.s:227    .text:0000000000000158 .LVL20
     /tmp/ccM8M9aW.s:232    .text:0000000000000168 .LVL21
     /tmp/ccM8M9aW.s:240    .text:0000000000000174 .LVL22
     /tmp/ccM8M9aW.s:245    .text:0000000000000184 .LVL23
     /tmp/ccM8M9aW.s:250    .text:0000000000000194 .LVL24
     /tmp/ccM8M9aW.s:259    .text:00000000000001a8 .LVL25
     /tmp/ccM8M9aW.s:979    .debug_str:000000000000009d .LASF18
     /tmp/ccM8M9aW.s:1047   .debug_str:000000000000039d .LASF20
     /tmp/ccM8M9aW.s:1039   .debug_str:0000000000000364 .LASF19
     /tmp/ccM8M9aW.s:983    .debug_str:00000000000000be .LASF21
     /tmp/ccM8M9aW.s:1017   .debug_str:0000000000000277 .LASF22
     /tmp/ccM8M9aW.s:965    .debug_str:000000000000001a .LASF23
     /tmp/ccM8M9aW.s:1029   .debug_str:00000000000002f5 .LASF24
     /tmp/ccM8M9aW.s:1021   .debug_str:00000000000002a1 .LASF25
     /tmp/ccM8M9aW.s:1027   .debug_str:00000000000002d9 .LASF26
     /tmp/ccM8M9aW.s:1025   .debug_str:00000000000002c2 .LASF27
     /tmp/ccM8M9aW.s:973    .debug_str:0000000000000058 .LASF28
     /tmp/ccM8M9aW.s:1033   .debug_str:000000000000031c .LASF29
     /tmp/ccM8M9aW.s:1019   .debug_str:000000000000028f .LASF30
     /tmp/ccM8M9aW.s:1031   .debug_str:000000000000030f .LASF31
     /tmp/ccM8M9aW.s:1037   .debug_str:000000000000034a .LASF32
     /tmp/ccM8M9aW.s:985    .debug_str:00000000000000c3 .LASF33
     /tmp/ccM8M9aW.s:1013   .debug_str:0000000000000251 .LASF34
     /tmp/ccM8M9aW.s:1009   .debug_str:000000000000022a .LASF35
     /tmp/ccM8M9aW.s:995    .debug_str:00000000000001cd .LASF36
     /tmp/ccM8M9aW.s:1041   .debug_str:000000000000036d .LASF37
     /tmp/ccM8M9aW.s:997    .debug_str:00000000000001db .LASF38
     /tmp/ccM8M9aW.s:1023   .debug_str:00000000000002b6 .LASF39
     /tmp/ccM8M9aW.s:76     .text:0000000000000030 .LVL2
     /tmp/ccM8M9aW.s:278    .debug_info:0000000000000000 .Ldebug_info0

UNDEFINED SYMBOLS
_Z11printStringPKc
_Z4getcv
_Z18Threads_C_API_testv
_Z20Threads_CPP_API_testv
_Z22producerConsumer_C_APIv
_Z29producerConsumer_CPP_Sync_APIv
_Z12testSleepingv
_Z20testConsumerProducerv
_Z16System_Mode_testv
_Z9testGetIdv
_Z11testBarrierv
