GAS LISTING /tmp/ccCjf6HA.s 			page 1


   1              		.file	"sem.cpp"
   2              		.option pic
   3              		.option norelax
   4              		.text
   5              	.Ltext0:
   6              		.align	2
   7              		.globl	_ZN3Sem4openEj
   9              	_ZN3Sem4openEj:
  10              	.LFB34:
  11              		.file 1 "src/sem.cpp"
   1:src/sem.cpp   **** //
   2:src/sem.cpp   **** // Created by os on 6/17/24.
   3:src/sem.cpp   **** //
   4:src/sem.cpp   **** 
   5:src/sem.cpp   **** #include "../h/sem.hpp"
   6:src/sem.cpp   **** 
   7:src/sem.cpp   **** Sem* Sem::open(unsigned int i){
  12              		.loc 1 7 31
  13              		.cfi_startproc
  14              	.LVL0:
  15 0000 130101FE 		addi	sp,sp,-32
  16              		.cfi_def_cfa_offset 32
  17 0004 233C1100 		sd	ra,24(sp)
  18 0008 23388100 		sd	s0,16(sp)
  19 000c 23349100 		sd	s1,8(sp)
  20              		.cfi_offset 1, -8
  21              		.cfi_offset 8, -16
  22              		.cfi_offset 9, -24
  23 0010 13040102 		addi	s0,sp,32
  24              		.cfi_def_cfa 8, 0
  25 0014 93040500 		mv	s1,a0
   8:src/sem.cpp   ****     return new Sem(i);
  26              		.loc 1 8 5
  27              		.loc 1 8 21 is_stmt 0
  28 0018 13050002 		li	a0,32
  29              	.LVL1:
  30 001c 97000000 		call	_Znwm@plt
  30      E7800000 
  31              	.LVL2:
  32              	.LBB55:
  33              	.LBB56:
  34              	.LBB57:
  35              	.LBB58:
  36              		.file 2 "src/../h/../h/list.hpp"
   1:src/../h/../h/list.hpp **** //
   2:src/../h/../h/list.hpp **** // Created by marko on 20.4.22..
   3:src/../h/../h/list.hpp **** //
   4:src/../h/../h/list.hpp **** 
   5:src/../h/../h/list.hpp **** #ifndef OS1_VEZBE07_RISCV_CONTEXT_SWITCH_1_SYNCHRONOUS_LIST_HPP
   6:src/../h/../h/list.hpp **** #define OS1_VEZBE07_RISCV_CONTEXT_SWITCH_1_SYNCHRONOUS_LIST_HPP
   7:src/../h/../h/list.hpp **** 
   8:src/../h/../h/list.hpp **** 
   9:src/../h/../h/list.hpp **** template<typename T>
  10:src/../h/../h/list.hpp **** class List
  11:src/../h/../h/list.hpp **** {
  12:src/../h/../h/list.hpp **** private:
  13:src/../h/../h/list.hpp ****     struct Elem
GAS LISTING /tmp/ccCjf6HA.s 			page 2


  14:src/../h/../h/list.hpp ****     {
  15:src/../h/../h/list.hpp ****         T *data;
  16:src/../h/../h/list.hpp ****         Elem *next;
  17:src/../h/../h/list.hpp **** 
  18:src/../h/../h/list.hpp ****         Elem(T *data, Elem *next) : data(data), next(next) {}
  19:src/../h/../h/list.hpp ****     };
  20:src/../h/../h/list.hpp **** 
  21:src/../h/../h/list.hpp ****     Elem *head, *tail;
  22:src/../h/../h/list.hpp **** 
  23:src/../h/../h/list.hpp **** public:
  24:src/../h/../h/list.hpp ****     List() : head(0), tail(0) {}
  37              		.loc 2 24 29
  38 0024 23340500 		sd	zero,8(a0)
  39 0028 23380500 		sd	zero,16(a0)
  40              	.LVL3:
  41              	.LBE58:
  42              	.LBE57:
  43              		.file 3 "src/../h/sem.hpp"
   1:src/../h/sem.hpp **** //
   2:src/../h/sem.hpp **** // Created by os on 6/17/24.
   3:src/../h/sem.hpp **** //
   4:src/../h/sem.hpp **** 
   5:src/../h/sem.hpp **** #ifndef AM180263_SEM_H
   6:src/../h/sem.hpp **** #define AM180263_SEM_H
   7:src/../h/sem.hpp **** 
   8:src/../h/sem.hpp **** #include "../h/syscall_c.hpp"
   9:src/../h/sem.hpp **** #include "../h/list.hpp"
  10:src/../h/sem.hpp **** #include "../h/tcb.hpp"
  11:src/../h/sem.hpp **** 
  12:src/../h/sem.hpp **** 
  13:src/../h/sem.hpp **** class Sem {
  14:src/../h/sem.hpp **** public:
  15:src/../h/sem.hpp **** 
  16:src/../h/sem.hpp ****     Sem (int init = 1) {
  17:src/../h/sem.hpp ****         this->value = init;
  44              		.loc 3 17 9 is_stmt 1
  45              		.loc 3 17 21 is_stmt 0
  46 002c 23209500 		sw	s1,0(a0)
  18:src/../h/sem.hpp ****         setState(OPENED);
  47              		.loc 3 18 9 is_stmt 1
  48              	.LVL4:
  49              	.LBB59:
  50              	.LBB60:
  19:src/../h/sem.hpp ****     }
  20:src/../h/sem.hpp ****     ~Sem();
  21:src/../h/sem.hpp **** 
  22:src/../h/sem.hpp ****     static Sem* open(unsigned int i);
  23:src/../h/sem.hpp ****     int close();
  24:src/../h/sem.hpp **** 
  25:src/../h/sem.hpp ****     int wait();
  26:src/../h/sem.hpp ****     int signal();
  27:src/../h/sem.hpp ****     int trywait();
  28:src/../h/sem.hpp **** 
  29:src/../h/sem.hpp **** 
  30:src/../h/sem.hpp **** 
  31:src/../h/sem.hpp ****     enum State {
  32:src/../h/sem.hpp ****         OPENED,
GAS LISTING /tmp/ccCjf6HA.s 			page 3


  33:src/../h/sem.hpp ****         CLOSED
  34:src/../h/sem.hpp ****     };
  35:src/../h/sem.hpp **** 
  36:src/../h/sem.hpp **** void setState(State state) {this->state = state;}
  51              		.loc 3 36 29
  52              		.loc 3 36 41 is_stmt 0
  53 0030 232C0500 		sw	zero,24(a0)
  54              	.LVL5:
  55              	.LBE60:
  56              	.LBE59:
  57              	.LBE56:
  58              	.LBE55:
   9:src/sem.cpp   **** }
  59              		.loc 1 9 1
  60 0034 83308101 		ld	ra,24(sp)
  61              		.cfi_restore 1
  62 0038 03340101 		ld	s0,16(sp)
  63              		.cfi_restore 8
  64              		.cfi_def_cfa 2, 32
  65 003c 83348100 		ld	s1,8(sp)
  66              		.cfi_restore 9
  67 0040 13010102 		addi	sp,sp,32
  68              		.cfi_def_cfa_offset 0
  69 0044 67800000 		jr	ra
  70              		.cfi_endproc
  71              	.LFE34:
  73              		.align	2
  74              		.globl	_ZN3Sem5closeEv
  76              	_ZN3Sem5closeEv:
  77              	.LFB35:
  10:src/sem.cpp   **** 
  11:src/sem.cpp   **** int Sem::close(){
  78              		.loc 1 11 17 is_stmt 1
  79              		.cfi_startproc
  80              	.LVL6:
  81 0048 130101FE 		addi	sp,sp,-32
  82              		.cfi_def_cfa_offset 32
  83 004c 233C1100 		sd	ra,24(sp)
  84 0050 23388100 		sd	s0,16(sp)
  85 0054 23349100 		sd	s1,8(sp)
  86 0058 23302101 		sd	s2,0(sp)
  87              		.cfi_offset 1, -8
  88              		.cfi_offset 8, -16
  89              		.cfi_offset 9, -24
  90              		.cfi_offset 18, -32
  91 005c 13040102 		addi	s0,sp,32
  92              		.cfi_def_cfa 8, 0
  93 0060 93040500 		mv	s1,a0
  12:src/sem.cpp   ****     if(getState() == OPENED){
  94              		.loc 1 12 5
  95              	.LVL7:
  96              	.LBB61:
  97              	.LBB62:
  98              	.LBB63:
  37:src/../h/sem.hpp **** State getState() {return state;}
  99              		.loc 3 37 19
 100              		.loc 3 37 26 is_stmt 0
GAS LISTING /tmp/ccCjf6HA.s 			page 4


 101 0064 83278501 		lw	a5,24(a0)
 102              	.LVL8:
 103              	.LBE63:
 104              	.LBE62:
 105              		.loc 1 12 5
 106 0068 63880704 		beqz	a5,.L8
  13:src/sem.cpp   ****         while (blockedThreads.hasElem() ) {
  14:src/sem.cpp   ****             TCB* t = blockedThreads.removeFirst();
  15:src/sem.cpp   ****             t->setFinished(false);
  16:src/sem.cpp   ****             Scheduler::put(t);
  17:src/sem.cpp   ****         }
  18:src/sem.cpp   ****         setState(CLOSED);
  19:src/sem.cpp   ****         return 0;
  20:src/sem.cpp   ****     } else return -1;
 107              		.loc 1 20 20
 108 006c 1305F0FF 		li	a0,-1
 109              	.LVL9:
 110 0070 6F000001 		j	.L4
 111              	.LVL10:
 112              	.L5:
 113              	.LBB64:
  18:src/sem.cpp   ****         return 0;
 114              		.loc 1 18 9 is_stmt 1
 115              	.LBB65:
 116              	.LBB66:
  36:src/../h/sem.hpp **** State getState() {return state;}
 117              		.loc 3 36 29
  36:src/../h/sem.hpp **** State getState() {return state;}
 118              		.loc 3 36 41 is_stmt 0
 119 0074 93071000 		li	a5,1
 120 0078 23ACF400 		sw	a5,24(s1)
 121              	.LVL11:
 122              	.LBE66:
 123              	.LBE65:
  19:src/sem.cpp   ****     } else return -1;
 124              		.loc 1 19 9 is_stmt 1
  19:src/sem.cpp   ****     } else return -1;
 125              		.loc 1 19 16 is_stmt 0
 126 007c 13050000 		li	a0,0
 127              	.L4:
 128              	.LBE64:
 129              	.LBE61:
  21:src/sem.cpp   **** }
 130              		.loc 1 21 1
 131 0080 83308101 		ld	ra,24(sp)
 132              		.cfi_remember_state
 133              		.cfi_restore 1
 134 0084 03340101 		ld	s0,16(sp)
 135              		.cfi_restore 8
 136              		.cfi_def_cfa 2, 32
 137 0088 83348100 		ld	s1,8(sp)
 138              		.cfi_restore 9
 139              	.LVL12:
 140 008c 03390100 		ld	s2,0(sp)
 141              		.cfi_restore 18
 142 0090 13010102 		addi	sp,sp,32
 143              		.cfi_def_cfa_offset 0
GAS LISTING /tmp/ccCjf6HA.s 			page 5


 144 0094 67800000 		jr	ra
 145              	.LVL13:
 146              	.L11:
 147              		.cfi_restore_state
 148              	.LBB78:
 149              	.LBB77:
 150              	.LBB67:
 151              	.LBB68:
 152              	.LBB69:
  25:src/../h/../h/list.hpp **** 
  26:src/../h/../h/list.hpp ****     List(const List<T> &) = delete;
  27:src/../h/../h/list.hpp **** 
  28:src/../h/../h/list.hpp ****     List<T> &operator=(const List<T> &) = delete;
  29:src/../h/../h/list.hpp **** 
  30:src/../h/../h/list.hpp ****     void addFirst(T *data)
  31:src/../h/../h/list.hpp ****     {
  32:src/../h/../h/list.hpp ****         Elem *elem = new Elem(data, head);
  33:src/../h/../h/list.hpp ****         head = elem;
  34:src/../h/../h/list.hpp ****         if (!tail) { tail = head; }
  35:src/../h/../h/list.hpp ****     }
  36:src/../h/../h/list.hpp **** 
  37:src/../h/../h/list.hpp ****     void addLast(T *data)
  38:src/../h/../h/list.hpp ****     {
  39:src/../h/../h/list.hpp ****         Elem *elem = new Elem(data, 0);
  40:src/../h/../h/list.hpp ****         if (tail)
  41:src/../h/../h/list.hpp ****         {
  42:src/../h/../h/list.hpp ****             tail->next = elem;
  43:src/../h/../h/list.hpp ****             tail = elem;
  44:src/../h/../h/list.hpp ****         } else
  45:src/../h/../h/list.hpp ****         {
  46:src/../h/../h/list.hpp ****             head = tail = elem;
  47:src/../h/../h/list.hpp ****         }
  48:src/../h/../h/list.hpp ****     }
  49:src/../h/../h/list.hpp **** 
  50:src/../h/../h/list.hpp ****     T *removeFirst()
  51:src/../h/../h/list.hpp ****     {
  52:src/../h/../h/list.hpp ****         if (!head) { return 0; }
  53:src/../h/../h/list.hpp **** 
  54:src/../h/../h/list.hpp ****         Elem *elem = head;
  55:src/../h/../h/list.hpp ****         head = head->next;
  56:src/../h/../h/list.hpp ****         if (!head) { tail = 0; }
 153              		.loc 2 56 22
 154 0098 23B80400 		sd	zero,16(s1)
 155              	.L7:
  57:src/../h/../h/list.hpp **** 
  58:src/../h/../h/list.hpp ****         T *ret = elem->data;
 156              		.loc 2 58 12
 157 009c 03390500 		ld	s2,0(a0)
 158              	.LVL14:
  59:src/../h/../h/list.hpp ****         delete elem;
 159              		.loc 2 59 9
 160 00a0 97000000 		call	_ZdlPv@plt
 160      E7800000 
 161              	.LVL15:
 162              	.LBE69:
 163              	.LBE68:
  15:src/sem.cpp   ****             Scheduler::put(t);
GAS LISTING /tmp/ccCjf6HA.s 			page 6


 164              		.loc 1 15 13 is_stmt 1
 165              	.LBB71:
 166              	.LBB72:
 167              		.file 4 "src/../h/../h/tcb.hpp"
   1:src/../h/../h/tcb.hpp **** //
   2:src/../h/../h/tcb.hpp **** // Created by os on 5/8/24.
   3:src/../h/../h/tcb.hpp **** //
   4:src/../h/../h/tcb.hpp **** 
   5:src/../h/../h/tcb.hpp **** #ifndef AM180263_CCB_H
   6:src/../h/../h/tcb.hpp **** #define AM180263_CCB_H
   7:src/../h/../h/tcb.hpp **** 
   8:src/../h/../h/tcb.hpp **** #include "../lib/hw.h"
   9:src/../h/../h/tcb.hpp **** #include "scheduler.hpp"
  10:src/../h/../h/tcb.hpp **** #include "../h/syscall_cpp.hpp"
  11:src/../h/../h/tcb.hpp **** #include "../h/MemoryAllocator.hpp"
  12:src/../h/../h/tcb.hpp **** typedef TCB* thread_t;
  13:src/../h/../h/tcb.hpp **** class Thread;
  14:src/../h/../h/tcb.hpp **** 
  15:src/../h/../h/tcb.hpp **** class TCB
  16:src/../h/../h/tcb.hpp **** {
  17:src/../h/../h/tcb.hpp **** public:
  18:src/../h/../h/tcb.hpp **** 
  19:src/../h/../h/tcb.hpp ****     static bool readyToPrintA;
  20:src/../h/../h/tcb.hpp ****     static bool readyToPrintB;
  21:src/../h/../h/tcb.hpp ****     static bool readyToPrintC;
  22:src/../h/../h/tcb.hpp ****     static int timeSliceCounter;
  23:src/../h/../h/tcb.hpp ****     //Thread* threadHandle;
  24:src/../h/../h/tcb.hpp ****     ~TCB() { MemoryAllocator::memfree(stack);}
  25:src/../h/../h/tcb.hpp ****     bool isFinished() const { return finished;}
  26:src/../h/../h/tcb.hpp ****     void setFinished(bool value){ TCB::finished = value; }
 168              		.loc 4 26 35
 169              		.loc 4 26 49 is_stmt 0
 170 00a8 230C0902 		sb	zero,56(s2)
 171              	.LVL16:
 172              	.LBE72:
 173              	.LBE71:
  16:src/sem.cpp   ****         }
 174              		.loc 1 16 13 is_stmt 1
  16:src/sem.cpp   ****         }
 175              		.loc 1 16 27 is_stmt 0
 176 00ac 13050900 		mv	a0,s2
 177 00b0 97000000 		call	_ZN9Scheduler3putEP3TCB@plt
 177      E7800000 
 178              	.LVL17:
 179              	.L8:
 180              	.LBE67:
  13:src/sem.cpp   ****             TCB* t = blockedThreads.removeFirst();
 181              		.loc 1 13 9 is_stmt 1
  13:src/sem.cpp   ****             TCB* t = blockedThreads.removeFirst();
 182              		.loc 1 13 38
 183              	.LBB74:
 184              	.LBB75:
  60:src/../h/../h/list.hpp ****         return ret;
  61:src/../h/../h/list.hpp ****     }
  62:src/../h/../h/list.hpp **** 
  63:src/../h/../h/list.hpp ****     T *peekFirst()
  64:src/../h/../h/list.hpp ****     {
GAS LISTING /tmp/ccCjf6HA.s 			page 7


  65:src/../h/../h/list.hpp ****         if (!head) { return 0; }
  66:src/../h/../h/list.hpp ****         return head->data;
  67:src/../h/../h/list.hpp ****     }
  68:src/../h/../h/list.hpp **** 
  69:src/../h/../h/list.hpp ****     T *removeLast()
  70:src/../h/../h/list.hpp ****     {
  71:src/../h/../h/list.hpp ****         if (!head) { return 0; }
  72:src/../h/../h/list.hpp **** 
  73:src/../h/../h/list.hpp ****         Elem *prev = 0;
  74:src/../h/../h/list.hpp ****         for (Elem *curr = head; curr && curr != tail; curr = curr->next)
  75:src/../h/../h/list.hpp ****         {
  76:src/../h/../h/list.hpp ****             prev = curr;
  77:src/../h/../h/list.hpp ****         }
  78:src/../h/../h/list.hpp **** 
  79:src/../h/../h/list.hpp ****         Elem *elem = tail;
  80:src/../h/../h/list.hpp ****         if (prev) { prev->next = 0; }
  81:src/../h/../h/list.hpp ****         else { head = 0; }
  82:src/../h/../h/list.hpp ****         tail = prev;
  83:src/../h/../h/list.hpp **** 
  84:src/../h/../h/list.hpp ****         T *ret = elem->data;
  85:src/../h/../h/list.hpp ****         delete elem;
  86:src/../h/../h/list.hpp ****         return ret;
  87:src/../h/../h/list.hpp ****     }
  88:src/../h/../h/list.hpp **** 
  89:src/../h/../h/list.hpp ****     T *peekLast()
  90:src/../h/../h/list.hpp ****     {
  91:src/../h/../h/list.hpp ****         if (!tail) { return 0; }
  92:src/../h/../h/list.hpp ****         return tail->data;
  93:src/../h/../h/list.hpp ****     }
  94:src/../h/../h/list.hpp **** 
  95:src/../h/../h/list.hpp ****     bool hasElem(){
  96:src/../h/../h/list.hpp ****         if(head) return true;
 185              		.loc 2 96 12 is_stmt 0
 186 00b8 03B58400 		ld	a0,8(s1)
 187              		.loc 2 96 9
 188 00bc E30C05FA 		beqz	a0,.L5
 189              	.LVL18:
 190              	.LBE75:
 191              	.LBE74:
 192              	.LBB76:
  14:src/sem.cpp   ****             t->setFinished(false);
 193              		.loc 1 14 13 is_stmt 1
 194              	.LBB73:
 195              	.LBB70:
  55:src/../h/../h/list.hpp ****         if (!head) { tail = 0; }
 196              		.loc 2 55 22 is_stmt 0
 197 00c0 83378500 		ld	a5,8(a0)
  55:src/../h/../h/list.hpp ****         if (!head) { tail = 0; }
 198              		.loc 2 55 9
 199 00c4 23B4F400 		sd	a5,8(s1)
  56:src/../h/../h/list.hpp **** 
 200              		.loc 2 56 9
 201 00c8 E39A07FC 		bnez	a5,.L7
 202 00cc 6FF0DFFC 		j	.L11
 203              	.LBE70:
 204              	.LBE73:
 205              	.LBE76:
GAS LISTING /tmp/ccCjf6HA.s 			page 8


 206              	.LBE77:
 207              	.LBE78:
 208              		.cfi_endproc
 209              	.LFE35:
 211              		.align	2
 212              		.globl	_ZN3Sem4waitEv
 214              	_ZN3Sem4waitEv:
 215              	.LFB36:
  22:src/sem.cpp   **** 
  23:src/sem.cpp   **** int Sem::wait() {
 216              		.loc 1 23 17 is_stmt 1
 217              		.cfi_startproc
 218              	.LVL19:
  24:src/sem.cpp   ****     if(getState()==OPENED) {
 219              		.loc 1 24 5
 220              	.LBB79:
 221              	.LBB80:
 222              		.loc 3 37 19
 223              		.loc 3 37 26 is_stmt 0
 224 00d0 83278501 		lw	a5,24(a0)
 225              	.LVL20:
 226              	.LBE80:
 227              	.LBE79:
 228              		.loc 1 24 5
 229 00d4 6394070A 		bnez	a5,.L18
  23:src/sem.cpp   ****     if(getState()==OPENED) {
 230              		.loc 1 23 17
 231 00d8 130101FE 		addi	sp,sp,-32
 232              		.cfi_def_cfa_offset 32
 233 00dc 233C1100 		sd	ra,24(sp)
 234 00e0 23388100 		sd	s0,16(sp)
 235 00e4 23349100 		sd	s1,8(sp)
 236 00e8 23302101 		sd	s2,0(sp)
 237              		.cfi_offset 1, -8
 238              		.cfi_offset 8, -16
 239              		.cfi_offset 9, -24
 240              		.cfi_offset 18, -32
 241 00ec 13040102 		addi	s0,sp,32
 242              		.cfi_def_cfa 8, 0
 243 00f0 93040500 		mv	s1,a0
  25:src/sem.cpp   ****         if (value <= 0) {
 244              		.loc 1 25 9 is_stmt 1
 245              		.loc 1 25 13 is_stmt 0
 246 00f4 83270500 		lw	a5,0(a0)
 247              		.loc 1 25 9
 248 00f8 6354F002 		blez	a5,.L23
  26:src/sem.cpp   ****             blockedThreads.addLast(TCB::running);
  27:src/sem.cpp   **** 
  28:src/sem.cpp   ****             TCB::running->setBlocked(true);
  29:src/sem.cpp   ****             //thread_dispatch();
  30:src/sem.cpp   ****             TCB::dispatch();
  31:src/sem.cpp   ****         } else {
  32:src/sem.cpp   ****             value -= 1;
 249              		.loc 1 32 13 is_stmt 1
 250              		.loc 1 32 19 is_stmt 0
 251 00fc 9B87F7FF 		addiw	a5,a5,-1
 252 0100 2320F500 		sw	a5,0(a0)
GAS LISTING /tmp/ccCjf6HA.s 			page 9


 253              	.LVL21:
 254              	.L17:
  33:src/sem.cpp   ****         }
  34:src/sem.cpp   **** 
  35:src/sem.cpp   ****         return 0;
 255              		.loc 1 35 9 is_stmt 1
 256              		.loc 1 35 16 is_stmt 0
 257 0104 13050000 		li	a0,0
  36:src/sem.cpp   ****     } else return -1;
  37:src/sem.cpp   **** }
 258              		.loc 1 37 1
 259 0108 83308101 		ld	ra,24(sp)
 260              		.cfi_remember_state
 261              		.cfi_restore 1
 262 010c 03340101 		ld	s0,16(sp)
 263              		.cfi_restore 8
 264              		.cfi_def_cfa 2, 32
 265 0110 83348100 		ld	s1,8(sp)
 266              		.cfi_restore 9
 267              	.LVL22:
 268 0114 03390100 		ld	s2,0(sp)
 269              		.cfi_restore 18
 270 0118 13010102 		addi	sp,sp,32
 271              		.cfi_def_cfa_offset 0
 272 011c 67800000 		jr	ra
 273              	.LVL23:
 274              	.L23:
 275              		.cfi_restore_state
  26:src/sem.cpp   **** 
 276              		.loc 1 26 13 is_stmt 1
  26:src/sem.cpp   **** 
 277              		.loc 1 26 35 is_stmt 0
 278 0120 97070000 		la	a5,_ZN3TCB7runningE
 278      83B70700 
 279 0128 03B90700 		ld	s2,0(a5)
 280              	.LVL24:
 281              	.LBB81:
 282              	.LBB82:
  39:src/../h/../h/list.hpp ****         if (tail)
 283              		.loc 2 39 22
 284 012c 13050001 		li	a0,16
 285 0130 97000000 		call	_Znwm@plt
 285      E7800000 
 286              	.LVL25:
 287              	.LBB83:
 288              	.LBB84:
  18:src/../h/../h/list.hpp ****     };
 289              		.loc 2 18 58
 290 0138 23302501 		sd	s2,0(a0)
 291 013c 23340500 		sd	zero,8(a0)
 292              	.LVL26:
 293              	.LBE84:
 294              	.LBE83:
  40:src/../h/../h/list.hpp ****         {
 295              		.loc 2 40 13
 296 0140 83B70401 		ld	a5,16(s1)
  40:src/../h/../h/list.hpp ****         {
GAS LISTING /tmp/ccCjf6HA.s 			page 10


 297              		.loc 2 40 9
 298 0144 63860702 		beqz	a5,.L15
  42:src/../h/../h/list.hpp ****             tail = elem;
 299              		.loc 2 42 13
 300 0148 23B4A700 		sd	a0,8(a5)
  43:src/../h/../h/list.hpp ****         } else
 301              		.loc 2 43 13
 302 014c 23B8A400 		sd	a0,16(s1)
 303              	.L16:
 304              	.LVL27:
 305              	.LBE82:
 306              	.LBE81:
  28:src/sem.cpp   ****             //thread_dispatch();
 307              		.loc 1 28 13 is_stmt 1
  28:src/sem.cpp   ****             //thread_dispatch();
 308              		.loc 1 28 37 is_stmt 0
 309 0150 97070000 		la	a5,_ZN3TCB7runningE
 309      83B70700 
 310 0158 83B70700 		ld	a5,0(a5)
 311              	.LVL28:
 312              	.LBB86:
 313              	.LBB87:
  27:src/../h/../h/tcb.hpp **** 
  28:src/../h/../h/tcb.hpp ****     bool isBlocked() const { return blocked;}
  29:src/../h/../h/tcb.hpp ****     void setBlocked(bool blocked) { TCB::blocked = blocked;}
 314              		.loc 4 29 37 is_stmt 1
 315              		.loc 4 29 50 is_stmt 0
 316 015c 13071000 		li	a4,1
 317 0160 A38CE702 		sb	a4,57(a5)
 318              	.LVL29:
 319              	.LBE87:
 320              	.LBE86:
  30:src/sem.cpp   ****         } else {
 321              		.loc 1 30 13 is_stmt 1
  30:src/sem.cpp   ****         } else {
 322              		.loc 1 30 26 is_stmt 0
 323 0164 97000000 		call	_ZN3TCB8dispatchEv@plt
 323      E7800000 
 324              	.LVL30:
 325 016c 6FF09FF9 		j	.L17
 326              	.LVL31:
 327              	.L15:
 328              	.LBB88:
 329              	.LBB85:
  46:src/../h/../h/list.hpp ****         }
 330              		.loc 2 46 13
 331 0170 23B8A400 		sd	a0,16(s1)
 332 0174 23B4A400 		sd	a0,8(s1)
 333 0178 6FF09FFD 		j	.L16
 334              	.LVL32:
 335              	.L18:
 336              		.cfi_def_cfa_register 2
 337              		.cfi_restore 1
 338              		.cfi_restore 8
 339              		.cfi_restore 9
 340              		.cfi_restore 18
 341              	.LBE85:
GAS LISTING /tmp/ccCjf6HA.s 			page 11


 342              	.LBE88:
  36:src/sem.cpp   **** }
 343              		.loc 1 36 20
 344 017c 1305F0FF 		li	a0,-1
 345              	.LVL33:
 346              		.loc 1 37 1
 347 0180 67800000 		ret
 348              		.cfi_endproc
 349              	.LFE36:
 351              		.align	2
 352              		.globl	_ZN3Sem6signalEv
 354              	_ZN3Sem6signalEv:
 355              	.LFB37:
  38:src/sem.cpp   **** 
  39:src/sem.cpp   **** int Sem::signal() {
 356              		.loc 1 39 19 is_stmt 1
 357              		.cfi_startproc
 358              	.LVL34:
  40:src/sem.cpp   ****     if(getState() == OPENED) {
 359              		.loc 1 40 5
 360              	.LBB89:
 361              	.LBB90:
 362              	.LBB91:
 363              		.loc 3 37 19
 364              		.loc 3 37 26 is_stmt 0
 365 0184 03278501 		lw	a4,24(a0)
 366              	.LVL35:
 367              	.LBE91:
 368              	.LBE90:
 369              		.loc 1 40 5
 370 0188 63160706 		bnez	a4,.L30
 371 018c 93070500 		mv	a5,a0
 372              	.LBB92:
  41:src/sem.cpp   ****         if (blockedThreads.hasElem()) {
 373              		.loc 1 41 9 is_stmt 1
 374              	.LVL36:
 375              	.LBB93:
 376              	.LBB94:
 377              	.LBB95:
 378              		.loc 2 96 12 is_stmt 0
 379 0190 03358500 		ld	a0,8(a0)
 380              	.LVL37:
 381              		.loc 2 96 9
 382 0194 63040506 		beqz	a0,.L26
 383              	.LBE95:
 384              	.LBE94:
 385              	.LBE93:
 386              	.LBE92:
 387              	.LBE89:
  39:src/sem.cpp   ****     if(getState() == OPENED) {
 388              		.loc 1 39 19
 389 0198 130101FE 		addi	sp,sp,-32
 390              		.cfi_def_cfa_offset 32
 391 019c 233C1100 		sd	ra,24(sp)
 392 01a0 23388100 		sd	s0,16(sp)
 393 01a4 23349100 		sd	s1,8(sp)
 394              		.cfi_offset 1, -8
GAS LISTING /tmp/ccCjf6HA.s 			page 12


 395              		.cfi_offset 8, -16
 396              		.cfi_offset 9, -24
 397 01a8 13040102 		addi	s0,sp,32
 398              		.cfi_def_cfa 8, 0
 399              	.LVL38:
 400              	.LBB110:
 401              	.LBB107:
 402              	.LBB104:
 403              	.LBB96:
  42:src/sem.cpp   ****             TCB* t = blockedThreads.removeFirst();
 404              		.loc 1 42 13 is_stmt 1
 405              	.LBB97:
 406              	.LBB98:
  55:src/../h/../h/list.hpp ****         if (!head) { tail = 0; }
 407              		.loc 2 55 22 is_stmt 0
 408 01ac 03378500 		ld	a4,8(a0)
  55:src/../h/../h/list.hpp ****         if (!head) { tail = 0; }
 409              		.loc 2 55 9
 410 01b0 23B4E700 		sd	a4,8(a5)
  56:src/../h/../h/list.hpp **** 
 411              		.loc 2 56 9
 412 01b4 630C0702 		beqz	a4,.L36
 413              	.L28:
  58:src/../h/../h/list.hpp ****         delete elem;
 414              		.loc 2 58 12
 415 01b8 83340500 		ld	s1,0(a0)
 416              	.LVL39:
  59:src/../h/../h/list.hpp ****         return ret;
 417              		.loc 2 59 9
 418 01bc 97000000 		call	_ZdlPv@plt
 418      E7800000 
 419              	.LVL40:
 420              	.LBE98:
 421              	.LBE97:
  43:src/sem.cpp   **** 
  44:src/sem.cpp   ****             t->setBlocked(false);
 422              		.loc 1 44 13 is_stmt 1
 423              	.LBB100:
 424              	.LBB101:
 425              		.loc 4 29 37
 426              		.loc 4 29 50 is_stmt 0
 427 01c4 A38C0402 		sb	zero,57(s1)
 428              	.LVL41:
 429              	.LBE101:
 430              	.LBE100:
  45:src/sem.cpp   ****             Scheduler::put(t);
 431              		.loc 1 45 13 is_stmt 1
 432              		.loc 1 45 27 is_stmt 0
 433 01c8 13850400 		mv	a0,s1
 434 01cc 97000000 		call	_ZN9Scheduler3putEP3TCB@plt
 434      E7800000 
 435              	.LVL42:
 436              	.LBE96:
 437              	.LBE104:
  46:src/sem.cpp   **** 
  47:src/sem.cpp   ****         } else {
  48:src/sem.cpp   ****             value += 1;
GAS LISTING /tmp/ccCjf6HA.s 			page 13


  49:src/sem.cpp   ****         }
  50:src/sem.cpp   **** 
  51:src/sem.cpp   ****         return 0;
 438              		.loc 1 51 9 is_stmt 1
 439              		.loc 1 51 16 is_stmt 0
 440 01d4 13050000 		li	a0,0
 441              	.LBE107:
 442              	.LBE110:
  52:src/sem.cpp   ****     }else return -1;
  53:src/sem.cpp   **** }
 443              		.loc 1 53 1
 444 01d8 83308101 		ld	ra,24(sp)
 445              		.cfi_remember_state
 446              		.cfi_restore 1
 447 01dc 03340101 		ld	s0,16(sp)
 448              		.cfi_restore 8
 449              		.cfi_def_cfa 2, 32
 450 01e0 83348100 		ld	s1,8(sp)
 451              		.cfi_restore 9
 452              	.LVL43:
 453 01e4 13010102 		addi	sp,sp,32
 454              		.cfi_def_cfa_offset 0
 455 01e8 67800000 		jr	ra
 456              	.LVL44:
 457              	.L36:
 458              		.cfi_restore_state
 459              	.LBB111:
 460              	.LBB108:
 461              	.LBB105:
 462              	.LBB103:
 463              	.LBB102:
 464              	.LBB99:
  56:src/../h/../h/list.hpp **** 
 465              		.loc 2 56 22
 466 01ec 23B80700 		sd	zero,16(a5)
 467 01f0 6FF09FFC 		j	.L28
 468              	.LVL45:
 469              	.L30:
 470              		.cfi_def_cfa_register 2
 471              		.cfi_restore 1
 472              		.cfi_restore 8
 473              		.cfi_restore 9
 474              	.LBE99:
 475              	.LBE102:
 476              	.LBE103:
 477              	.LBE105:
 478              	.LBE108:
  52:src/sem.cpp   ****     }else return -1;
 479              		.loc 1 52 19
 480 01f4 1305F0FF 		li	a0,-1
 481              	.LVL46:
 482 01f8 67800000 		ret
 483              	.LVL47:
 484              	.L26:
 485              	.LBB109:
 486              	.LBB106:
  48:src/sem.cpp   ****         }
GAS LISTING /tmp/ccCjf6HA.s 			page 14


 487              		.loc 1 48 13 is_stmt 1
  48:src/sem.cpp   ****         }
 488              		.loc 1 48 19 is_stmt 0
 489 01fc 03A70700 		lw	a4,0(a5)
 490 0200 1B071700 		addiw	a4,a4,1
 491 0204 23A0E700 		sw	a4,0(a5)
 492              	.LBE106:
  51:src/sem.cpp   ****     }else return -1;
 493              		.loc 1 51 9 is_stmt 1
  51:src/sem.cpp   ****     }else return -1;
 494              		.loc 1 51 16 is_stmt 0
 495 0208 13050000 		li	a0,0
 496              	.LBE109:
 497              	.LBE111:
 498              		.loc 1 53 1
 499 020c 67800000 		ret
 500              		.cfi_endproc
 501              	.LFE37:
 503              		.align	2
 504              		.globl	_ZN3Sem7trywaitEv
 506              	_ZN3Sem7trywaitEv:
 507              	.LFB38:
  54:src/sem.cpp   **** 
  55:src/sem.cpp   **** int Sem::trywait() {
 508              		.loc 1 55 20 is_stmt 1
 509              		.cfi_startproc
 510              	.LVL48:
 511 0210 130101FF 		addi	sp,sp,-16
 512              		.cfi_def_cfa_offset 16
 513 0214 23348100 		sd	s0,8(sp)
 514              		.cfi_offset 8, -8
 515 0218 13040101 		addi	s0,sp,16
 516              		.cfi_def_cfa 8, 0
  56:src/sem.cpp   ****     if(getState() == OPENED){
 517              		.loc 1 56 5
 518              	.LVL49:
 519              	.LBB112:
 520              	.LBB113:
 521              		.loc 3 37 19
 522              		.loc 3 37 26 is_stmt 0
 523 021c 83278501 		lw	a5,24(a0)
 524              	.LVL50:
 525              	.LBE113:
 526              	.LBE112:
 527              		.loc 1 56 5
 528 0220 63920702 		bnez	a5,.L39
  57:src/sem.cpp   ****         if(value >0) {
 529              		.loc 1 57 9 is_stmt 1
 530              		.loc 1 57 12 is_stmt 0
 531 0224 83270500 		lw	a5,0(a0)
 532              		.loc 1 57 9
 533 0228 6352F002 		blez	a5,.L40
  58:src/sem.cpp   ****             value -=1;
 534              		.loc 1 58 13 is_stmt 1
 535              		.loc 1 58 19 is_stmt 0
 536 022c 9B87F7FF 		addiw	a5,a5,-1
 537 0230 2320F500 		sw	a5,0(a0)
GAS LISTING /tmp/ccCjf6HA.s 			page 15


  59:src/sem.cpp   ****             return 0;}
 538              		.loc 1 59 13 is_stmt 1
 539              		.loc 1 59 20 is_stmt 0
 540 0234 13050000 		li	a0,0
 541              	.LVL51:
 542              	.L38:
  60:src/sem.cpp   ****         else return 1;
  61:src/sem.cpp   ****     } else return -1;
  62:src/sem.cpp   **** }
 543              		.loc 1 62 1
 544 0238 03348100 		ld	s0,8(sp)
 545              		.cfi_remember_state
 546              		.cfi_restore 8
 547              		.cfi_def_cfa 2, 16
 548 023c 13010101 		addi	sp,sp,16
 549              		.cfi_def_cfa_offset 0
 550 0240 67800000 		jr	ra
 551              	.LVL52:
 552              	.L39:
 553              		.cfi_restore_state
  61:src/sem.cpp   **** }
 554              		.loc 1 61 20
 555 0244 1305F0FF 		li	a0,-1
 556              	.LVL53:
 557 0248 6FF01FFF 		j	.L38
 558              	.LVL54:
 559              	.L40:
  60:src/sem.cpp   ****         else return 1;
 560              		.loc 1 60 21
 561 024c 13051000 		li	a0,1
 562              	.LVL55:
 563 0250 6FF09FFE 		j	.L38
 564              		.cfi_endproc
 565              	.LFE38:
 567              		.align	2
 568              		.globl	_ZN3SemD2Ev
 570              	_ZN3SemD2Ev:
 571              	.LFB40:
  63:src/sem.cpp   **** 
  64:src/sem.cpp   **** 
  65:src/sem.cpp   **** Sem::~Sem() {
 572              		.loc 1 65 1 is_stmt 1
 573              		.cfi_startproc
 574              		.cfi_personality 0x9b,DW.ref.__gxx_personality_v0
 575              		.cfi_lsda 0x1b,.LLSDA40
 576              	.LVL56:
 577 0254 130101FF 		addi	sp,sp,-16
 578              		.cfi_def_cfa_offset 16
 579 0258 23341100 		sd	ra,8(sp)
 580 025c 23308100 		sd	s0,0(sp)
 581              		.cfi_offset 1, -8
 582              		.cfi_offset 8, -16
 583 0260 13040101 		addi	s0,sp,16
 584              		.cfi_def_cfa 8, 0
 585              	.LBB114:
  66:src/sem.cpp   ****     close();
 586              		.loc 1 66 5
GAS LISTING /tmp/ccCjf6HA.s 			page 16


 587              		.loc 1 66 10 is_stmt 0
 588 0264 97000000 		call	_ZN3Sem5closeEv
 588      E7800000 
 589              	.LVL57:
 590              	.LBE114:
  67:src/sem.cpp   **** }
 591              		.loc 1 67 1
 592 026c 83308100 		ld	ra,8(sp)
 593              		.cfi_restore 1
 594 0270 03340100 		ld	s0,0(sp)
 595              		.cfi_restore 8
 596              		.cfi_def_cfa 2, 16
 597 0274 13010101 		addi	sp,sp,16
 598              		.cfi_def_cfa_offset 0
 599 0278 67800000 		jr	ra
 600              		.cfi_endproc
 601              	.LFE40:
 602              		.globl	__gxx_personality_v0
 603              		.section	.gcc_except_table,"a",@progbits
 604              	.LLSDA40:
 605 0000 FF       		.byte	0xff
 606 0001 FF       		.byte	0xff
 607 0002 03       		.byte	0x3
 608 0003 00       		.byte	0
 609              		.text
 611              		.globl	_ZN3SemD1Ev
 612              		.set	_ZN3SemD1Ev,_ZN3SemD2Ev
 613              	.Letext0:
 614              		.file 5 "src/../h/../h/../lib/hw.h"
 615              		.file 6 "src/../h/../h/scheduler.hpp"
 616              		.file 7 "src/../h/../h/syscall_c.hpp"
 4199              		.align	3
 4202              	DW.ref.__gxx_personality_v0:
 4203 0000 00000000 		.dword	__gxx_personality_v0
 4203      00000000 
 4204              		.ident	"GCC: (Ubuntu 9.4.0-1ubuntu1~20.04) 9.4.0"
 4205              		.section	.note.GNU-stack,"",@progbits
GAS LISTING /tmp/ccCjf6HA.s 			page 17

