GAS LISTING /tmp/ccuQPfeV.s 			page 1


   1              		.file	"syscall_c.cpp"
   2              		.option pic
   3              		.option norelax
   4              		.text
   5              	.Ltext0:
   6              		.align	2
   7              		.globl	_Z7syscallv
   9              	_Z7syscallv:
  10              	.LFB16:
  11              		.file 1 "src/syscall_c.cpp"
   1:src/syscall_c.cpp **** //
   2:src/syscall_c.cpp **** // Created by os on 5/10/24.
   3:src/syscall_c.cpp **** //
   4:src/syscall_c.cpp **** 
   5:src/syscall_c.cpp **** #include "../h/syscall_c.hpp"
   6:src/syscall_c.cpp **** #include "../h/riscv.hpp"
   7:src/syscall_c.cpp **** #include "../tests/printing.hpp"
   8:src/syscall_c.cpp **** 
   9:src/syscall_c.cpp **** uint64 code;
  10:src/syscall_c.cpp **** 
  11:src/syscall_c.cpp **** void syscall(){
  12              		.loc 1 11 15
  13              		.cfi_startproc
  14 0000 130101FF 		addi	sp,sp,-16
  15              		.cfi_def_cfa_offset 16
  16 0004 23348100 		sd	s0,8(sp)
  17              		.cfi_offset 8, -8
  18 0008 13040101 		addi	s0,sp,16
  19              		.cfi_def_cfa 8, 0
  12:src/syscall_c.cpp ****     __asm__ volatile("mv a0, %0" : : "r"(code));
  20              		.loc 1 12 5
  21              		.loc 1 12 48 is_stmt 0
  22 000c 97070000 		ld	a5,.LANCHOR0
  22      83B70700 
  23              	#APP
  24              	# 12 "src/syscall_c.cpp" 1
  13              	    __asm__ volatile("ecall");
  25              		mv a0, a5
  26              	# 0 "" 2
  27              		.loc 1 13 5 is_stmt 1
  28              		.loc 1 13 30 is_stmt 0
  29              	# 13 "src/syscall_c.cpp" 1
  14              	}
  30              		ecall
  31              	# 0 "" 2
  32              		.loc 1 14 1
  33              	#NO_APP
  34 001c 03348100 		ld	s0,8(sp)
  35              		.cfi_restore 8
  36              		.cfi_def_cfa 2, 16
  37 0020 13010101 		addi	sp,sp,16
  38              		.cfi_def_cfa_offset 0
  39 0024 67800000 		jr	ra
  40              		.cfi_endproc
  41              	.LFE16:
  43              		.align	2
  44              		.globl	_Z3retv
GAS LISTING /tmp/ccuQPfeV.s 			page 2


  46              	_Z3retv:
  47              	.LFB17:
  15:src/syscall_c.cpp **** uint64 value;
  16:src/syscall_c.cpp **** 
  17:src/syscall_c.cpp **** uint64 ret(){
  48              		.loc 1 17 13 is_stmt 1
  49              		.cfi_startproc
  50 0028 130101FF 		addi	sp,sp,-16
  51              		.cfi_def_cfa_offset 16
  52 002c 23348100 		sd	s0,8(sp)
  53              		.cfi_offset 8, -8
  54 0030 13040101 		addi	s0,sp,16
  55              		.cfi_def_cfa 8, 0
  18:src/syscall_c.cpp ****     __asm__ volatile("mv a0, %0" : : "r"(code));
  56              		.loc 1 18 5
  57              		.loc 1 18 48 is_stmt 0
  58 0034 97070000 		lla	a5,.LANCHOR0
  58      93870700 
  59 003c 03B70700 		ld	a4,0(a5)
  60              	#APP
  61              	# 18 "src/syscall_c.cpp" 1
  19              	    __asm__ volatile("ecall");
  62              		mv a0, a4
  63              	# 0 "" 2
  64              		.loc 1 19 5 is_stmt 1
  65              		.loc 1 19 30 is_stmt 0
  66              	# 19 "src/syscall_c.cpp" 1
  20              	    __asm__ volatile ("mv %0, a0" : "=r"(value));
  67              		ecall
  68              	# 0 "" 2
  69              		.loc 1 20 5 is_stmt 1
  70              		.loc 1 20 49 is_stmt 0
  71              	# 20 "src/syscall_c.cpp" 1
  21              	    return value;
  72              		mv a0, a0
  73              	# 0 "" 2
  74              	#NO_APP
  75 004c 23B4A700 		sd	a0,8(a5)
  76              		.loc 1 21 5 is_stmt 1
  22:src/syscall_c.cpp **** }
  77              		.loc 1 22 1 is_stmt 0
  78 0050 03348100 		ld	s0,8(sp)
  79              		.cfi_restore 8
  80              		.cfi_def_cfa 2, 16
  81 0054 13010101 		addi	sp,sp,16
  82              		.cfi_def_cfa_offset 0
  83 0058 67800000 		jr	ra
  84              		.cfi_endproc
  85              	.LFE17:
  87              		.align	2
  88              		.globl	_Z9mem_allocm
  90              	_Z9mem_allocm:
  91              	.LFB18:
  23:src/syscall_c.cpp **** 
  24:src/syscall_c.cpp **** void* mem_alloc(size_t size){
  92              		.loc 1 24 29 is_stmt 1
  93              		.cfi_startproc
GAS LISTING /tmp/ccuQPfeV.s 			page 3


  94              	.LVL0:
  95 005c 130101FF 		addi	sp,sp,-16
  96              		.cfi_def_cfa_offset 16
  97 0060 23341100 		sd	ra,8(sp)
  98 0064 23308100 		sd	s0,0(sp)
  99              		.cfi_offset 1, -8
 100              		.cfi_offset 8, -16
 101 0068 13040101 		addi	s0,sp,16
 102              		.cfi_def_cfa 8, 0
  25:src/syscall_c.cpp ****    code = MEM_ALLOC;
 103              		.loc 1 25 4
 104              		.loc 1 25 9 is_stmt 0
 105 006c 93071000 		li	a5,1
 106 0070 17070000 		sd	a5,.LANCHOR0,a4
 106      2330F700 
  26:src/syscall_c.cpp **** 
  27:src/syscall_c.cpp ****     //ovde treba u blokovima
  28:src/syscall_c.cpp ****     size_t blkNum = size / MEM_BLOCK_SIZE;
 107              		.loc 1 28 5 is_stmt 1
 108              		.loc 1 28 12 is_stmt 0
 109 0078 93576500 		srli	a5,a0,6
 110              	.LVL1:
  29:src/syscall_c.cpp ****     if(size % MEM_BLOCK_SIZE > 0) blkNum += 1;
 111              		.loc 1 29 5 is_stmt 1
 112              		.loc 1 29 13 is_stmt 0
 113 007c 1375F503 		andi	a0,a0,63
 114              	.LVL2:
 115              		.loc 1 29 5
 116 0080 63040500 		beqz	a0,.L6
 117              		.loc 1 29 35 is_stmt 1 discriminator 1
 118              		.loc 1 29 42 is_stmt 0 discriminator 1
 119 0084 93871700 		addi	a5,a5,1
 120              	.LVL3:
 121              	.L6:
  30:src/syscall_c.cpp ****     blkNum *= MEM_BLOCK_SIZE;
 122              		.loc 1 30 5 is_stmt 1
 123              		.loc 1 30 12 is_stmt 0
 124 0088 93976700 		slli	a5,a5,6
 125              	.LVL4:
  31:src/syscall_c.cpp ****     __asm__ volatile("mv a1,%0": : "r"(blkNum));
 126              		.loc 1 31 5 is_stmt 1
 127              		.loc 1 31 48 is_stmt 0
 128              	#APP
 129              	# 31 "src/syscall_c.cpp" 1
  32              	
  33:src/syscall_c.cpp ****     return (void*) ret();
 130              		mv a1,a5
 131              	# 0 "" 2
 132              		.loc 1 33 5 is_stmt 1
 133              		.loc 1 33 23 is_stmt 0
 134              	#NO_APP
 135 0090 97000000 		call	_Z3retv
 135      E7800000 
 136              	.LVL5:
  34:src/syscall_c.cpp **** 
  35:src/syscall_c.cpp **** }
 137              		.loc 1 35 1
GAS LISTING /tmp/ccuQPfeV.s 			page 4


 138 0098 83308100 		ld	ra,8(sp)
 139              		.cfi_restore 1
 140 009c 03340100 		ld	s0,0(sp)
 141              		.cfi_restore 8
 142              		.cfi_def_cfa 2, 16
 143 00a0 13010101 		addi	sp,sp,16
 144              		.cfi_def_cfa_offset 0
 145 00a4 67800000 		jr	ra
 146              		.cfi_endproc
 147              	.LFE18:
 149              		.align	2
 150              		.globl	_Z8mem_freePv
 152              	_Z8mem_freePv:
 153              	.LFB19:
  36:src/syscall_c.cpp **** 
  37:src/syscall_c.cpp **** int mem_free(void* addr){
 154              		.loc 1 37 25 is_stmt 1
 155              		.cfi_startproc
 156              	.LVL6:
 157 00a8 130101FF 		addi	sp,sp,-16
 158              		.cfi_def_cfa_offset 16
 159 00ac 23341100 		sd	ra,8(sp)
 160 00b0 23308100 		sd	s0,0(sp)
 161              		.cfi_offset 1, -8
 162              		.cfi_offset 8, -16
 163 00b4 13040101 		addi	s0,sp,16
 164              		.cfi_def_cfa 8, 0
  38:src/syscall_c.cpp ****     code = MEM_FREE;
 165              		.loc 1 38 5
 166              		.loc 1 38 10 is_stmt 0
 167 00b8 93072000 		li	a5,2
 168 00bc 17070000 		sd	a5,.LANCHOR0,a4
 168      2330F700 
  39:src/syscall_c.cpp ****     __asm__ volatile("mv a1, %0" : : "r"(addr));
 169              		.loc 1 39 5 is_stmt 1
 170              		.loc 1 39 48 is_stmt 0
 171              	#APP
 172              	# 39 "src/syscall_c.cpp" 1
  40              	
  41:src/syscall_c.cpp ****     return (int) ret();
 173              		mv a1, a0
 174              	# 0 "" 2
 175              		.loc 1 41 5 is_stmt 1
 176              		.loc 1 41 21 is_stmt 0
 177              	#NO_APP
 178 00c8 97000000 		call	_Z3retv
 178      E7800000 
 179              	.LVL7:
  42:src/syscall_c.cpp **** }
 180              		.loc 1 42 1
 181 00d0 1B050500 		sext.w	a0,a0
 182 00d4 83308100 		ld	ra,8(sp)
 183              		.cfi_restore 1
 184 00d8 03340100 		ld	s0,0(sp)
 185              		.cfi_restore 8
 186              		.cfi_def_cfa 2, 16
 187 00dc 13010101 		addi	sp,sp,16
GAS LISTING /tmp/ccuQPfeV.s 			page 5


 188              		.cfi_def_cfa_offset 0
 189 00e0 67800000 		jr	ra
 190              		.cfi_endproc
 191              	.LFE19:
 193              		.align	2
 194              		.globl	_Z13thread_createPP3TCBPFvPvES2_
 196              	_Z13thread_createPP3TCBPFvPvES2_:
 197              	.LFB20:
  43:src/syscall_c.cpp **** 
  44:src/syscall_c.cpp **** 
  45:src/syscall_c.cpp **** int thread_create(thread_t* handle, void (*start_routine)(void*), void* arg){
 198              		.loc 1 45 77 is_stmt 1
 199              		.cfi_startproc
 200              	.LVL8:
 201 00e4 130101FF 		addi	sp,sp,-16
 202              		.cfi_def_cfa_offset 16
 203 00e8 23341100 		sd	ra,8(sp)
 204 00ec 23308100 		sd	s0,0(sp)
 205              		.cfi_offset 1, -8
 206              		.cfi_offset 8, -16
 207 00f0 13040101 		addi	s0,sp,16
 208              		.cfi_def_cfa 8, 0
  46:src/syscall_c.cpp **** //ovde nesto ne valjaa
  47:src/syscall_c.cpp **** //
  48:src/syscall_c.cpp ****     code = THREAD_CREATE;
 209              		.loc 1 48 5
 210              		.loc 1 48 10 is_stmt 0
 211 00f4 93071001 		li	a5,17
 212 00f8 17070000 		sd	a5,.LANCHOR0,a4
 212      2330F700 
  49:src/syscall_c.cpp **** 
  50:src/syscall_c.cpp ****     __asm__ volatile("mv a7, %0" : : "r"(arg));
 213              		.loc 1 50 5 is_stmt 1
 214              		.loc 1 50 47 is_stmt 0
 215              	#APP
 216              	# 50 "src/syscall_c.cpp" 1
  51              	    __asm__ volatile("mv a2, %0" : : "r"(start_routine));
 217              		mv a7, a2
 218              	# 0 "" 2
 219              		.loc 1 51 5 is_stmt 1
 220              		.loc 1 51 57 is_stmt 0
 221              	# 51 "src/syscall_c.cpp" 1
  52              	    __asm__ volatile("mv a1, %0" : : "r"(handle));
 222              		mv a2, a1
 223              	# 0 "" 2
 224              		.loc 1 52 5 is_stmt 1
 225              		.loc 1 52 50 is_stmt 0
 226              	# 52 "src/syscall_c.cpp" 1
  53              	
  54:src/syscall_c.cpp ****    return (int) ret();
 227              		mv a1, a0
 228              	# 0 "" 2
 229              		.loc 1 54 4 is_stmt 1
 230              		.loc 1 54 20 is_stmt 0
 231              	#NO_APP
 232 010c 97000000 		call	_Z3retv
 232      E7800000 
GAS LISTING /tmp/ccuQPfeV.s 			page 6


 233              	.LVL9:
  55:src/syscall_c.cpp **** 
  56:src/syscall_c.cpp **** 
  57:src/syscall_c.cpp **** }
 234              		.loc 1 57 1
 235 0114 1B050500 		sext.w	a0,a0
 236 0118 83308100 		ld	ra,8(sp)
 237              		.cfi_restore 1
 238 011c 03340100 		ld	s0,0(sp)
 239              		.cfi_restore 8
 240              		.cfi_def_cfa 2, 16
 241 0120 13010101 		addi	sp,sp,16
 242              		.cfi_def_cfa_offset 0
 243 0124 67800000 		jr	ra
 244              		.cfi_endproc
 245              	.LFE20:
 247              		.align	2
 248              		.globl	_Z11thread_exitv
 250              	_Z11thread_exitv:
 251              	.LFB21:
  58:src/syscall_c.cpp **** 
  59:src/syscall_c.cpp **** int thread_exit(){
 252              		.loc 1 59 18 is_stmt 1
 253              		.cfi_startproc
 254 0128 130101FF 		addi	sp,sp,-16
 255              		.cfi_def_cfa_offset 16
 256 012c 23341100 		sd	ra,8(sp)
 257 0130 23308100 		sd	s0,0(sp)
 258              		.cfi_offset 1, -8
 259              		.cfi_offset 8, -16
 260 0134 13040101 		addi	s0,sp,16
 261              		.cfi_def_cfa 8, 0
  60:src/syscall_c.cpp ****     code = THREAD_EXIT;
 262              		.loc 1 60 5
 263              		.loc 1 60 10 is_stmt 0
 264 0138 93072001 		li	a5,18
 265 013c 17070000 		sd	a5,.LANCHOR0,a4
 265      2330F700 
  61:src/syscall_c.cpp ****     return (int) ret();
 266              		.loc 1 61 5 is_stmt 1
 267              		.loc 1 61 21 is_stmt 0
 268 0144 97000000 		call	_Z3retv
 268      E7800000 
 269              	.LVL10:
  62:src/syscall_c.cpp **** }
 270              		.loc 1 62 1
 271 014c 1B050500 		sext.w	a0,a0
 272 0150 83308100 		ld	ra,8(sp)
 273              		.cfi_restore 1
 274 0154 03340100 		ld	s0,0(sp)
 275              		.cfi_restore 8
 276              		.cfi_def_cfa 2, 16
 277 0158 13010101 		addi	sp,sp,16
 278              		.cfi_def_cfa_offset 0
 279 015c 67800000 		jr	ra
 280              		.cfi_endproc
 281              	.LFE21:
GAS LISTING /tmp/ccuQPfeV.s 			page 7


 283              		.align	2
 284              		.globl	_Z15thread_dispatchv
 286              	_Z15thread_dispatchv:
 287              	.LFB22:
  63:src/syscall_c.cpp **** void thread_dispatch(){
 288              		.loc 1 63 23 is_stmt 1
 289              		.cfi_startproc
 290 0160 130101FF 		addi	sp,sp,-16
 291              		.cfi_def_cfa_offset 16
 292 0164 23341100 		sd	ra,8(sp)
 293 0168 23308100 		sd	s0,0(sp)
 294              		.cfi_offset 1, -8
 295              		.cfi_offset 8, -16
 296 016c 13040101 		addi	s0,sp,16
 297              		.cfi_def_cfa 8, 0
  64:src/syscall_c.cpp ****     code = THREAD_DISPATCH;
 298              		.loc 1 64 5
 299              		.loc 1 64 10 is_stmt 0
 300 0170 93073001 		li	a5,19
 301 0174 17070000 		sd	a5,.LANCHOR0,a4
 301      2330F700 
  65:src/syscall_c.cpp **** 
  66:src/syscall_c.cpp ****     //za ovo mora druga funkcija jer je void
  67:src/syscall_c.cpp ****    syscall();
 302              		.loc 1 67 4 is_stmt 1
 303              		.loc 1 67 11 is_stmt 0
 304 017c 97000000 		call	_Z7syscallv
 304      E7800000 
 305              	.LVL11:
  68:src/syscall_c.cpp **** }
 306              		.loc 1 68 1
 307 0184 83308100 		ld	ra,8(sp)
 308              		.cfi_restore 1
 309 0188 03340100 		ld	s0,0(sp)
 310              		.cfi_restore 8
 311              		.cfi_def_cfa 2, 16
 312 018c 13010101 		addi	sp,sp,16
 313              		.cfi_def_cfa_offset 0
 314 0190 67800000 		jr	ra
 315              		.cfi_endproc
 316              	.LFE22:
 318              		.align	2
 319              		.globl	_Z11thread_joinP3TCB
 321              	_Z11thread_joinP3TCB:
 322              	.LFB23:
  69:src/syscall_c.cpp **** 
  70:src/syscall_c.cpp **** void thread_join(thread_t handle){
 323              		.loc 1 70 34 is_stmt 1
 324              		.cfi_startproc
 325              	.LVL12:
 326 0194 130101FF 		addi	sp,sp,-16
 327              		.cfi_def_cfa_offset 16
 328 0198 23341100 		sd	ra,8(sp)
 329 019c 23308100 		sd	s0,0(sp)
 330              		.cfi_offset 1, -8
 331              		.cfi_offset 8, -16
 332 01a0 13040101 		addi	s0,sp,16
GAS LISTING /tmp/ccuQPfeV.s 			page 8


 333              		.cfi_def_cfa 8, 0
  71:src/syscall_c.cpp ****     code = THREAD_JOIN;
 334              		.loc 1 71 5
 335              		.loc 1 71 10 is_stmt 0
 336 01a4 93074001 		li	a5,20
 337 01a8 17070000 		sd	a5,.LANCHOR0,a4
 337      2330F700 
  72:src/syscall_c.cpp ****     __asm__ volatile("mv a1, %0" : : "r"(handle));
 338              		.loc 1 72 5 is_stmt 1
 339              		.loc 1 72 50 is_stmt 0
 340              	#APP
 341              	# 72 "src/syscall_c.cpp" 1
  73              	
  74:src/syscall_c.cpp ****     syscall();
 342              		mv a1, a0
 343              	# 0 "" 2
 344              		.loc 1 74 5 is_stmt 1
 345              		.loc 1 74 12 is_stmt 0
 346              	#NO_APP
 347 01b4 97000000 		call	_Z7syscallv
 347      E7800000 
 348              	.LVL13:
  75:src/syscall_c.cpp **** }
 349              		.loc 1 75 1
 350 01bc 83308100 		ld	ra,8(sp)
 351              		.cfi_restore 1
 352 01c0 03340100 		ld	s0,0(sp)
 353              		.cfi_restore 8
 354              		.cfi_def_cfa 2, 16
 355 01c4 13010101 		addi	sp,sp,16
 356              		.cfi_def_cfa_offset 0
 357 01c8 67800000 		jr	ra
 358              		.cfi_endproc
 359              	.LFE23:
 361              		.align	2
 362              		.globl	_Z11getThreadIdv
 364              	_Z11getThreadIdv:
 365              	.LFB24:
  76:src/syscall_c.cpp **** int getThreadId() {
 366              		.loc 1 76 19 is_stmt 1
 367              		.cfi_startproc
 368 01cc 130101FF 		addi	sp,sp,-16
 369              		.cfi_def_cfa_offset 16
 370 01d0 23341100 		sd	ra,8(sp)
 371 01d4 23308100 		sd	s0,0(sp)
 372              		.cfi_offset 1, -8
 373              		.cfi_offset 8, -16
 374 01d8 13040101 		addi	s0,sp,16
 375              		.cfi_def_cfa 8, 0
  77:src/syscall_c.cpp ****     code = THREAD_ID;
 376              		.loc 1 77 5
 377              		.loc 1 77 10 is_stmt 0
 378 01dc 93075001 		li	a5,21
 379 01e0 17070000 		sd	a5,.LANCHOR0,a4
 379      2330F700 
  78:src/syscall_c.cpp **** 
  79:src/syscall_c.cpp ****     return (int) ret();
GAS LISTING /tmp/ccuQPfeV.s 			page 9


 380              		.loc 1 79 5 is_stmt 1
 381              		.loc 1 79 21 is_stmt 0
 382 01e8 97000000 		call	_Z3retv
 382      E7800000 
 383              	.LVL14:
  80:src/syscall_c.cpp **** 
  81:src/syscall_c.cpp **** }
 384              		.loc 1 81 1
 385 01f0 1B050500 		sext.w	a0,a0
 386 01f4 83308100 		ld	ra,8(sp)
 387              		.cfi_restore 1
 388 01f8 03340100 		ld	s0,0(sp)
 389              		.cfi_restore 8
 390              		.cfi_def_cfa 2, 16
 391 01fc 13010101 		addi	sp,sp,16
 392              		.cfi_def_cfa_offset 0
 393 0200 67800000 		jr	ra
 394              		.cfi_endproc
 395              	.LFE24:
 397              		.align	2
 398              		.globl	_Z8_barrierv
 400              	_Z8_barrierv:
 401              	.LFB25:
  82:src/syscall_c.cpp **** 
  83:src/syscall_c.cpp **** void _barrier() {
 402              		.loc 1 83 17 is_stmt 1
 403              		.cfi_startproc
 404 0204 130101FF 		addi	sp,sp,-16
 405              		.cfi_def_cfa_offset 16
 406 0208 23341100 		sd	ra,8(sp)
 407 020c 23308100 		sd	s0,0(sp)
 408              		.cfi_offset 1, -8
 409              		.cfi_offset 8, -16
 410 0210 13040101 		addi	s0,sp,16
 411              		.cfi_def_cfa 8, 0
  84:src/syscall_c.cpp ****     code = THREAD_BARRIER;
 412              		.loc 1 84 5
 413              		.loc 1 84 10 is_stmt 0
 414 0214 93076001 		li	a5,22
 415 0218 17070000 		sd	a5,.LANCHOR0,a4
 415      2330F700 
  85:src/syscall_c.cpp ****     syscall();
 416              		.loc 1 85 5 is_stmt 1
 417              		.loc 1 85 12 is_stmt 0
 418 0220 97000000 		call	_Z7syscallv
 418      E7800000 
 419              	.LVL15:
  86:src/syscall_c.cpp **** }
 420              		.loc 1 86 1
 421 0228 83308100 		ld	ra,8(sp)
 422              		.cfi_restore 1
 423 022c 03340100 		ld	s0,0(sp)
 424              		.cfi_restore 8
 425              		.cfi_def_cfa 2, 16
 426 0230 13010101 		addi	sp,sp,16
 427              		.cfi_def_cfa_offset 0
 428 0234 67800000 		jr	ra
GAS LISTING /tmp/ccuQPfeV.s 			page 10


 429              		.cfi_endproc
 430              	.LFE25:
 432              		.align	2
 433              		.globl	_Z8sem_openPP3Semj
 435              	_Z8sem_openPP3Semj:
 436              	.LFB26:
  87:src/syscall_c.cpp **** 
  88:src/syscall_c.cpp **** int sem_open(sem_t* handle, unsigned init){
 437              		.loc 1 88 43 is_stmt 1
 438              		.cfi_startproc
 439              	.LVL16:
 440 0238 130101FF 		addi	sp,sp,-16
 441              		.cfi_def_cfa_offset 16
 442 023c 23341100 		sd	ra,8(sp)
 443 0240 23308100 		sd	s0,0(sp)
 444              		.cfi_offset 1, -8
 445              		.cfi_offset 8, -16
 446 0244 13040101 		addi	s0,sp,16
 447              		.cfi_def_cfa 8, 0
  89:src/syscall_c.cpp ****     code=SEM_OPEN;
 448              		.loc 1 89 5
 449              		.loc 1 89 9 is_stmt 0
 450 0248 93071002 		li	a5,33
 451 024c 17070000 		sd	a5,.LANCHOR0,a4
 451      2330F700 
  90:src/syscall_c.cpp ****     __asm__ volatile("mv a2, %0" : : "r"(init));
 452              		.loc 1 90 5 is_stmt 1
 453              		.loc 1 90 48 is_stmt 0
 454              	#APP
 455              	# 90 "src/syscall_c.cpp" 1
  91              	    __asm__ volatile("mv a1, %0" : : "r"(handle));
 456              		mv a2, a1
 457              	# 0 "" 2
 458              		.loc 1 91 5 is_stmt 1
 459              		.loc 1 91 50 is_stmt 0
 460              	# 91 "src/syscall_c.cpp" 1
  92              	
  93:src/syscall_c.cpp ****     return (int) ret();
 461              		mv a1, a0
 462              	# 0 "" 2
 463              		.loc 1 93 5 is_stmt 1
 464              		.loc 1 93 21 is_stmt 0
 465              	#NO_APP
 466 025c 97000000 		call	_Z3retv
 466      E7800000 
 467              	.LVL17:
  94:src/syscall_c.cpp **** 
  95:src/syscall_c.cpp **** }
 468              		.loc 1 95 1
 469 0264 1B050500 		sext.w	a0,a0
 470 0268 83308100 		ld	ra,8(sp)
 471              		.cfi_restore 1
 472 026c 03340100 		ld	s0,0(sp)
 473              		.cfi_restore 8
 474              		.cfi_def_cfa 2, 16
 475 0270 13010101 		addi	sp,sp,16
 476              		.cfi_def_cfa_offset 0
GAS LISTING /tmp/ccuQPfeV.s 			page 11


 477 0274 67800000 		jr	ra
 478              		.cfi_endproc
 479              	.LFE26:
 481              		.align	2
 482              		.globl	_Z9sem_closeP3Sem
 484              	_Z9sem_closeP3Sem:
 485              	.LFB27:
  96:src/syscall_c.cpp **** int sem_close(sem_t handle){
 486              		.loc 1 96 28 is_stmt 1
 487              		.cfi_startproc
 488              	.LVL18:
 489 0278 130101FF 		addi	sp,sp,-16
 490              		.cfi_def_cfa_offset 16
 491 027c 23341100 		sd	ra,8(sp)
 492 0280 23308100 		sd	s0,0(sp)
 493              		.cfi_offset 1, -8
 494              		.cfi_offset 8, -16
 495 0284 13040101 		addi	s0,sp,16
 496              		.cfi_def_cfa 8, 0
  97:src/syscall_c.cpp ****     code = SEM_CLOSE;
 497              		.loc 1 97 5
 498              		.loc 1 97 10 is_stmt 0
 499 0288 93072002 		li	a5,34
 500 028c 17070000 		sd	a5,.LANCHOR0,a4
 500      2330F700 
  98:src/syscall_c.cpp ****     __asm__ volatile("mv a1, %0" : : "r"(handle));
 501              		.loc 1 98 5 is_stmt 1
 502              		.loc 1 98 50 is_stmt 0
 503              	#APP
 504              	# 98 "src/syscall_c.cpp" 1
  99              	
 100:src/syscall_c.cpp ****     return (int) ret();
 505              		mv a1, a0
 506              	# 0 "" 2
 507              		.loc 1 100 5 is_stmt 1
 508              		.loc 1 100 21 is_stmt 0
 509              	#NO_APP
 510 0298 97000000 		call	_Z3retv
 510      E7800000 
 511              	.LVL19:
 101:src/syscall_c.cpp **** }
 512              		.loc 1 101 1
 513 02a0 1B050500 		sext.w	a0,a0
 514 02a4 83308100 		ld	ra,8(sp)
 515              		.cfi_restore 1
 516 02a8 03340100 		ld	s0,0(sp)
 517              		.cfi_restore 8
 518              		.cfi_def_cfa 2, 16
 519 02ac 13010101 		addi	sp,sp,16
 520              		.cfi_def_cfa_offset 0
 521 02b0 67800000 		jr	ra
 522              		.cfi_endproc
 523              	.LFE27:
 525              		.align	2
 526              		.globl	_Z8sem_waitP3Sem
 528              	_Z8sem_waitP3Sem:
 529              	.LFB28:
GAS LISTING /tmp/ccuQPfeV.s 			page 12


 102:src/syscall_c.cpp **** 
 103:src/syscall_c.cpp **** int sem_wait(sem_t id){
 530              		.loc 1 103 23 is_stmt 1
 531              		.cfi_startproc
 532              	.LVL20:
 533 02b4 130101FF 		addi	sp,sp,-16
 534              		.cfi_def_cfa_offset 16
 535 02b8 23341100 		sd	ra,8(sp)
 536 02bc 23308100 		sd	s0,0(sp)
 537              		.cfi_offset 1, -8
 538              		.cfi_offset 8, -16
 539 02c0 13040101 		addi	s0,sp,16
 540              		.cfi_def_cfa 8, 0
 104:src/syscall_c.cpp ****     code = SEM_WAIT;
 541              		.loc 1 104 5
 542              		.loc 1 104 10 is_stmt 0
 543 02c4 93073002 		li	a5,35
 544 02c8 17070000 		sd	a5,.LANCHOR0,a4
 544      2330F700 
 105:src/syscall_c.cpp ****     __asm__ volatile("mv a1, %0" : : "r"(id));
 545              		.loc 1 105 5 is_stmt 1
 546              		.loc 1 105 46 is_stmt 0
 547              	#APP
 548              	# 105 "src/syscall_c.cpp" 1
 106              	
 107:src/syscall_c.cpp ****     return (int) ret();
 549              		mv a1, a0
 550              	# 0 "" 2
 551              		.loc 1 107 5 is_stmt 1
 552              		.loc 1 107 21 is_stmt 0
 553              	#NO_APP
 554 02d4 97000000 		call	_Z3retv
 554      E7800000 
 555              	.LVL21:
 108:src/syscall_c.cpp **** }
 556              		.loc 1 108 1
 557 02dc 1B050500 		sext.w	a0,a0
 558 02e0 83308100 		ld	ra,8(sp)
 559              		.cfi_restore 1
 560 02e4 03340100 		ld	s0,0(sp)
 561              		.cfi_restore 8
 562              		.cfi_def_cfa 2, 16
 563 02e8 13010101 		addi	sp,sp,16
 564              		.cfi_def_cfa_offset 0
 565 02ec 67800000 		jr	ra
 566              		.cfi_endproc
 567              	.LFE28:
 569              		.align	2
 570              		.globl	_Z10sem_signalP3Sem
 572              	_Z10sem_signalP3Sem:
 573              	.LFB29:
 109:src/syscall_c.cpp **** int sem_signal(sem_t id){
 574              		.loc 1 109 25 is_stmt 1
 575              		.cfi_startproc
 576              	.LVL22:
 577 02f0 130101FF 		addi	sp,sp,-16
 578              		.cfi_def_cfa_offset 16
GAS LISTING /tmp/ccuQPfeV.s 			page 13


 579 02f4 23341100 		sd	ra,8(sp)
 580 02f8 23308100 		sd	s0,0(sp)
 581              		.cfi_offset 1, -8
 582              		.cfi_offset 8, -16
 583 02fc 13040101 		addi	s0,sp,16
 584              		.cfi_def_cfa 8, 0
 110:src/syscall_c.cpp ****     code = SEM_SIGNAL;
 585              		.loc 1 110 5
 586              		.loc 1 110 10 is_stmt 0
 587 0300 93074002 		li	a5,36
 588 0304 17070000 		sd	a5,.LANCHOR0,a4
 588      2330F700 
 111:src/syscall_c.cpp ****     __asm__ volatile("mv a1, %0" : : "r"(id));
 589              		.loc 1 111 5 is_stmt 1
 590              		.loc 1 111 46 is_stmt 0
 591              	#APP
 592              	# 111 "src/syscall_c.cpp" 1
 112              	
 113:src/syscall_c.cpp ****     return (int) ret();
 593              		mv a1, a0
 594              	# 0 "" 2
 595              		.loc 1 113 5 is_stmt 1
 596              		.loc 1 113 21 is_stmt 0
 597              	#NO_APP
 598 0310 97000000 		call	_Z3retv
 598      E7800000 
 599              	.LVL23:
 114:src/syscall_c.cpp **** }
 600              		.loc 1 114 1
 601 0318 1B050500 		sext.w	a0,a0
 602 031c 83308100 		ld	ra,8(sp)
 603              		.cfi_restore 1
 604 0320 03340100 		ld	s0,0(sp)
 605              		.cfi_restore 8
 606              		.cfi_def_cfa 2, 16
 607 0324 13010101 		addi	sp,sp,16
 608              		.cfi_def_cfa_offset 0
 609 0328 67800000 		jr	ra
 610              		.cfi_endproc
 611              	.LFE29:
 613              		.align	2
 614              		.globl	_Z13sem_timedwaitP3Semm
 616              	_Z13sem_timedwaitP3Semm:
 617              	.LFB30:
 115:src/syscall_c.cpp **** int sem_timedwait(sem_t id, time_t timeout){
 618              		.loc 1 115 44 is_stmt 1
 619              		.cfi_startproc
 620              	.LVL24:
 621 032c 130101FF 		addi	sp,sp,-16
 622              		.cfi_def_cfa_offset 16
 623 0330 23348100 		sd	s0,8(sp)
 624              		.cfi_offset 8, -8
 625 0334 13040101 		addi	s0,sp,16
 626              		.cfi_def_cfa 8, 0
 116:src/syscall_c.cpp **** //    code = SEM_TIMEDWAIT;
 117:src/syscall_c.cpp **** //    __asm__ volatile("mv a2, %0" : : "r"(timeout));
 118:src/syscall_c.cpp **** //    __asm__ volatile("mv a1, %0" : : "r"(id));
GAS LISTING /tmp/ccuQPfeV.s 			page 14


 119:src/syscall_c.cpp **** //
 120:src/syscall_c.cpp **** //    return (int) ret();
 121:src/syscall_c.cpp **** return 0;
 627              		.loc 1 121 1
 122:src/syscall_c.cpp **** }
 628              		.loc 1 122 1 is_stmt 0
 629 0338 13050000 		li	a0,0
 630              	.LVL25:
 631 033c 03348100 		ld	s0,8(sp)
 632              		.cfi_restore 8
 633              		.cfi_def_cfa 2, 16
 634 0340 13010101 		addi	sp,sp,16
 635              		.cfi_def_cfa_offset 0
 636 0344 67800000 		jr	ra
 637              		.cfi_endproc
 638              	.LFE30:
 640              		.align	2
 641              		.globl	_Z11sem_trywaitP3Sem
 643              	_Z11sem_trywaitP3Sem:
 644              	.LFB31:
 123:src/syscall_c.cpp **** int sem_trywait(sem_t id){
 645              		.loc 1 123 26 is_stmt 1
 646              		.cfi_startproc
 647              	.LVL26:
 648 0348 130101FF 		addi	sp,sp,-16
 649              		.cfi_def_cfa_offset 16
 650 034c 23341100 		sd	ra,8(sp)
 651 0350 23308100 		sd	s0,0(sp)
 652              		.cfi_offset 1, -8
 653              		.cfi_offset 8, -16
 654 0354 13040101 		addi	s0,sp,16
 655              		.cfi_def_cfa 8, 0
 124:src/syscall_c.cpp ****     code = SEM_TRYWAIT;
 656              		.loc 1 124 5
 657              		.loc 1 124 10 is_stmt 0
 658 0358 93076002 		li	a5,38
 659 035c 17070000 		sd	a5,.LANCHOR0,a4
 659      2330F700 
 125:src/syscall_c.cpp ****     __asm__ volatile("mv a1, %0" : : "r"(id));
 660              		.loc 1 125 5 is_stmt 1
 661              		.loc 1 125 46 is_stmt 0
 662              	#APP
 663              	# 125 "src/syscall_c.cpp" 1
 126              	
 127:src/syscall_c.cpp ****     return (int) ret();
 664              		mv a1, a0
 665              	# 0 "" 2
 666              		.loc 1 127 5 is_stmt 1
 667              		.loc 1 127 21 is_stmt 0
 668              	#NO_APP
 669 0368 97000000 		call	_Z3retv
 669      E7800000 
 670              	.LVL27:
 128:src/syscall_c.cpp **** }
 671              		.loc 1 128 1
 672 0370 1B050500 		sext.w	a0,a0
 673 0374 83308100 		ld	ra,8(sp)
GAS LISTING /tmp/ccuQPfeV.s 			page 15


 674              		.cfi_restore 1
 675 0378 03340100 		ld	s0,0(sp)
 676              		.cfi_restore 8
 677              		.cfi_def_cfa 2, 16
 678 037c 13010101 		addi	sp,sp,16
 679              		.cfi_def_cfa_offset 0
 680 0380 67800000 		jr	ra
 681              		.cfi_endproc
 682              	.LFE31:
 684              		.align	2
 685              		.globl	_Z10time_sleepm
 687              	_Z10time_sleepm:
 688              	.LFB32:
 129:src/syscall_c.cpp **** 
 130:src/syscall_c.cpp **** int time_sleep(time_t sleep){
 689              		.loc 1 130 29 is_stmt 1
 690              		.cfi_startproc
 691              	.LVL28:
 692 0384 130101FF 		addi	sp,sp,-16
 693              		.cfi_def_cfa_offset 16
 694 0388 23348100 		sd	s0,8(sp)
 695              		.cfi_offset 8, -8
 696 038c 13040101 		addi	s0,sp,16
 697              		.cfi_def_cfa 8, 0
 131:src/syscall_c.cpp **** //    code = TIME_SLEEP;
 132:src/syscall_c.cpp **** //    __asm__ volatile("mv a1, %0" : : "r"(sleep));
 133:src/syscall_c.cpp **** //
 134:src/syscall_c.cpp **** //    return (int) ret();
 135:src/syscall_c.cpp **** return 0;
 698              		.loc 1 135 1
 136:src/syscall_c.cpp **** }
 699              		.loc 1 136 1 is_stmt 0
 700 0390 13050000 		li	a0,0
 701              	.LVL29:
 702 0394 03348100 		ld	s0,8(sp)
 703              		.cfi_restore 8
 704              		.cfi_def_cfa 2, 16
 705 0398 13010101 		addi	sp,sp,16
 706              		.cfi_def_cfa_offset 0
 707 039c 67800000 		jr	ra
 708              		.cfi_endproc
 709              	.LFE32:
 711              		.align	2
 712              		.globl	_Z4getcv
 714              	_Z4getcv:
 715              	.LFB33:
 137:src/syscall_c.cpp **** 
 138:src/syscall_c.cpp **** char getc(){
 716              		.loc 1 138 12 is_stmt 1
 717              		.cfi_startproc
 718 03a0 130101FF 		addi	sp,sp,-16
 719              		.cfi_def_cfa_offset 16
 720 03a4 23341100 		sd	ra,8(sp)
 721 03a8 23308100 		sd	s0,0(sp)
 722              		.cfi_offset 1, -8
 723              		.cfi_offset 8, -16
 724 03ac 13040101 		addi	s0,sp,16
GAS LISTING /tmp/ccuQPfeV.s 			page 16


 725              		.cfi_def_cfa 8, 0
 139:src/syscall_c.cpp ****     code = GETC;
 726              		.loc 1 139 5
 727              		.loc 1 139 10 is_stmt 0
 728 03b0 93071004 		li	a5,65
 729 03b4 17070000 		sd	a5,.LANCHOR0,a4
 729      2330F700 
 140:src/syscall_c.cpp **** 
 141:src/syscall_c.cpp ****     return (char)ret();
 730              		.loc 1 141 5 is_stmt 1
 731              		.loc 1 141 21 is_stmt 0
 732 03bc 97000000 		call	_Z3retv
 732      E7800000 
 733              	.LVL30:
 142:src/syscall_c.cpp **** }
 734              		.loc 1 142 1
 735 03c4 1375F50F 		andi	a0,a0,0xff
 736 03c8 83308100 		ld	ra,8(sp)
 737              		.cfi_restore 1
 738 03cc 03340100 		ld	s0,0(sp)
 739              		.cfi_restore 8
 740              		.cfi_def_cfa 2, 16
 741 03d0 13010101 		addi	sp,sp,16
 742              		.cfi_def_cfa_offset 0
 743 03d4 67800000 		jr	ra
 744              		.cfi_endproc
 745              	.LFE33:
 747              		.align	2
 748              		.globl	_Z4putcc
 750              	_Z4putcc:
 751              	.LFB34:
 143:src/syscall_c.cpp **** 
 144:src/syscall_c.cpp **** void putc(char c){
 752              		.loc 1 144 18 is_stmt 1
 753              		.cfi_startproc
 754              	.LVL31:
 755 03d8 130101FF 		addi	sp,sp,-16
 756              		.cfi_def_cfa_offset 16
 757 03dc 23341100 		sd	ra,8(sp)
 758 03e0 23308100 		sd	s0,0(sp)
 759              		.cfi_offset 1, -8
 760              		.cfi_offset 8, -16
 761 03e4 13040101 		addi	s0,sp,16
 762              		.cfi_def_cfa 8, 0
 145:src/syscall_c.cpp ****     code = PUTC;
 763              		.loc 1 145 5
 764              		.loc 1 145 10 is_stmt 0
 765 03e8 93072004 		li	a5,66
 766 03ec 17070000 		sd	a5,.LANCHOR0,a4
 766      2330F700 
 146:src/syscall_c.cpp **** 
 147:src/syscall_c.cpp ****     __asm__ volatile("mv a1, %0" : : "r"(c));
 767              		.loc 1 147 5 is_stmt 1
 768              		.loc 1 147 45 is_stmt 0
 769              	#APP
 770              	# 147 "src/syscall_c.cpp" 1
 148              	    syscall();
GAS LISTING /tmp/ccuQPfeV.s 			page 17


 771              		mv a1, a0
 772              	# 0 "" 2
 773              		.loc 1 148 5 is_stmt 1
 774              		.loc 1 148 12 is_stmt 0
 775              	#NO_APP
 776 03f8 97000000 		call	_Z7syscallv
 776      E7800000 
 777              	.LVL32:
 149:src/syscall_c.cpp **** }
 778              		.loc 1 149 1
 779 0400 83308100 		ld	ra,8(sp)
 780              		.cfi_restore 1
 781 0404 03340100 		ld	s0,0(sp)
 782              		.cfi_restore 8
 783              		.cfi_def_cfa 2, 16
 784 0408 13010101 		addi	sp,sp,16
 785              		.cfi_def_cfa_offset 0
 786 040c 67800000 		jr	ra
 787              		.cfi_endproc
 788              	.LFE34:
 790              		.align	2
 791              		.globl	_Z8userModev
 793              	_Z8userModev:
 794              	.LFB35:
 150:src/syscall_c.cpp **** 
 151:src/syscall_c.cpp **** void userMode(){
 795              		.loc 1 151 16 is_stmt 1
 796              		.cfi_startproc
 797 0410 130101FF 		addi	sp,sp,-16
 798              		.cfi_def_cfa_offset 16
 799 0414 23348100 		sd	s0,8(sp)
 800              		.cfi_offset 8, -8
 801 0418 13040101 		addi	s0,sp,16
 802              		.cfi_def_cfa 8, 0
 152:src/syscall_c.cpp ****     code = USER;
 803              		.loc 1 152 5
 804              		.loc 1 152 10 is_stmt 0
 805 041c 93070005 		li	a5,80
 806 0420 17070000 		sd	a5,.LANCHOR0,a4
 806      2330F700 
 153:src/syscall_c.cpp ****     __asm__ volatile("mv a0, %0" : : "r" (code));
 807              		.loc 1 153 5 is_stmt 1
 808              		.loc 1 153 49 is_stmt 0
 809              	#APP
 810              	# 153 "src/syscall_c.cpp" 1
 154              	    __asm__ volatile ("ecall");
 811              		mv a0, a5
 812              	# 0 "" 2
 813              		.loc 1 154 5 is_stmt 1
 814              		.loc 1 154 31 is_stmt 0
 815              	# 154 "src/syscall_c.cpp" 1
 155              	}
 816              		ecall
 817              	# 0 "" 2
 818              		.loc 1 155 1
 819              	#NO_APP
 820 0430 03348100 		ld	s0,8(sp)
GAS LISTING /tmp/ccuQPfeV.s 			page 18


 821              		.cfi_restore 8
 822              		.cfi_def_cfa 2, 16
 823 0434 13010101 		addi	sp,sp,16
 824              		.cfi_def_cfa_offset 0
 825 0438 67800000 		jr	ra
 826              		.cfi_endproc
 827              	.LFE35:
 829              		.globl	value
 830              		.globl	code
 831              		.bss
 832              		.align	3
 833              		.set	.LANCHOR0,. + 0
 836              	code:
 837 0000 00000000 		.zero	8
 837      00000000 
 840              	value:
 841 0008 00000000 		.zero	8
 841      00000000 
 842              		.text
 843              	.Letext0:
 844              		.file 2 "src/../h/../lib/hw.h"
 845              		.file 3 "src/../h/syscall_c.hpp"
GAS LISTING /tmp/ccuQPfeV.s 			page 19

