GAS LISTING /tmp/ccBJBJI7.s 			page 1


   1              		.file	"syscall_cpp.cpp"
   2              		.option pic
   3              		.option norelax
   4              		.text
   5              	.Ltext0:
   6              		.section	.text._ZN6Thread3runEv,"axG",@progbits,_ZN6Thread3runEv,comdat
   7              		.align	2
   8              		.weak	_ZN6Thread3runEv
  10              	_ZN6Thread3runEv:
  11              	.LFB0:
  12              		.file 1 "src/../h/syscall_cpp.hpp"
   1:src/../h/syscall_cpp.hpp **** //
   2:src/../h/syscall_cpp.hpp **** // Created by os on 5/10/24.
   3:src/../h/syscall_cpp.hpp **** //
   4:src/../h/syscall_cpp.hpp **** 
   5:src/../h/syscall_cpp.hpp **** #ifndef AM180263_SYSCALL_CPP_H
   6:src/../h/syscall_cpp.hpp **** #define AM180263_SYSCALL_CPP_H
   7:src/../h/syscall_cpp.hpp **** 
   8:src/../h/syscall_cpp.hpp **** #include "syscall_c.hpp"
   9:src/../h/syscall_cpp.hpp **** 
  10:src/../h/syscall_cpp.hpp **** class Thread {
  11:src/../h/syscall_cpp.hpp **** public:
  12:src/../h/syscall_cpp.hpp ****     Thread(void (*body) (void*), void* arg);
  13:src/../h/syscall_cpp.hpp ****     virtual ~Thread();
  14:src/../h/syscall_cpp.hpp ****     int start();
  15:src/../h/syscall_cpp.hpp ****     static void dispatch();
  16:src/../h/syscall_cpp.hpp ****     static int sleep(time_t);
  17:src/../h/syscall_cpp.hpp ****     void join();
  18:src/../h/syscall_cpp.hpp ****     static void setRunning(Thread* thread);
  19:src/../h/syscall_cpp.hpp ****     static void barrier();
  20:src/../h/syscall_cpp.hpp **** protected:
  21:src/../h/syscall_cpp.hpp ****     Thread();
  22:src/../h/syscall_cpp.hpp ****     virtual void run() { }
  13              		.loc 1 22 18
  14              		.cfi_startproc
  15              	.LVL0:
  16 0000 130101FF 		addi	sp,sp,-16
  17              		.cfi_def_cfa_offset 16
  18 0004 23348100 		sd	s0,8(sp)
  19              		.cfi_offset 8, -8
  20 0008 13040101 		addi	s0,sp,16
  21              		.cfi_def_cfa 8, 0
  22              		.loc 1 22 26 is_stmt 0
  23 000c 03348100 		ld	s0,8(sp)
  24              		.cfi_restore 8
  25              		.cfi_def_cfa 2, 16
  26 0010 13010101 		addi	sp,sp,16
  27              		.cfi_def_cfa_offset 0
  28 0014 67800000 		jr	ra
  29              		.cfi_endproc
  30              	.LFE0:
  32              		.text
  33              		.align	2
  34              		.globl	_ZN6ThreadD2Ev
  36              	_ZN6ThreadD2Ev:
  37              	.LFB38:
  38              		.file 2 "src/syscall_cpp.cpp"
GAS LISTING /tmp/ccBJBJI7.s 			page 2


   1:src/syscall_cpp.cpp **** //
   2:src/syscall_cpp.cpp **** // Created by os on 5/10/24.
   3:src/syscall_cpp.cpp **** //
   4:src/syscall_cpp.cpp **** 
   5:src/syscall_cpp.cpp **** #include "../h/syscall_cpp.hpp"
   6:src/syscall_cpp.cpp **** #include "../h/syscall_c.hpp"
   7:src/syscall_cpp.cpp **** #include "../h/tcb.hpp"
   8:src/syscall_cpp.cpp **** 
   9:src/syscall_cpp.cpp **** Thread::Thread(void(*body)(void*), void *arg ) {
  10:src/syscall_cpp.cpp **** this->body = body;
  11:src/syscall_cpp.cpp **** this->arg = arg;
  12:src/syscall_cpp.cpp ****     thread_create(&myHandle, this->body, this->arg);
  13:src/syscall_cpp.cpp ****     myHandle->threadHandle = this;
  14:src/syscall_cpp.cpp **** }
  15:src/syscall_cpp.cpp **** 
  16:src/syscall_cpp.cpp **** void Thread::setRunning(Thread* thread) {
  17:src/syscall_cpp.cpp ****     TCB::running = thread->myHandle;
  18:src/syscall_cpp.cpp **** }
  19:src/syscall_cpp.cpp **** 
  20:src/syscall_cpp.cpp **** void Thread::barrier(){
  21:src/syscall_cpp.cpp ****     _barrier();
  22:src/syscall_cpp.cpp **** }
  23:src/syscall_cpp.cpp **** 
  24:src/syscall_cpp.cpp **** Thread::Thread() {
  25:src/syscall_cpp.cpp **** //    this->body = nullptr;
  26:src/syscall_cpp.cpp **** //    this->arg = nullptr;
  27:src/syscall_cpp.cpp ****    thread_create(&myHandle, nullptr, nullptr);
  28:src/syscall_cpp.cpp **** 
  29:src/syscall_cpp.cpp ****    myHandle->threadHandle = this;
  30:src/syscall_cpp.cpp **** }
  31:src/syscall_cpp.cpp **** 
  32:src/syscall_cpp.cpp **** Thread::~Thread() {
  39              		.loc 2 32 1 is_stmt 1
  40              		.cfi_startproc
  41              		.cfi_personality 0x9b,DW.ref.__gxx_personality_v0
  42              		.cfi_lsda 0x1b,.LLSDA38
  43              	.LVL1:
  44 0000 130101FE 		addi	sp,sp,-32
  45              		.cfi_def_cfa_offset 32
  46 0004 233C1100 		sd	ra,24(sp)
  47 0008 23388100 		sd	s0,16(sp)
  48 000c 23349100 		sd	s1,8(sp)
  49              		.cfi_offset 1, -8
  50              		.cfi_offset 8, -16
  51              		.cfi_offset 9, -24
  52 0010 13040102 		addi	s0,sp,32
  53              		.cfi_def_cfa 8, 0
  54              	.LBB6:
  55              		.loc 2 32 17 is_stmt 0
  56 0014 97070000 		lla	a5,_ZTV6Thread+16
  56      93870700 
  57 001c 2330F500 		sd	a5,0(a0)
  33:src/syscall_cpp.cpp ****     delete myHandle;
  58              		.loc 2 33 5 is_stmt 1
  59              		.loc 2 33 12 is_stmt 0
  60 0020 83348500 		ld	s1,8(a0)
  61              		.loc 2 33 20
GAS LISTING /tmp/ccBJBJI7.s 			page 3


  62 0024 638E0400 		beqz	s1,.L3
  63              	.LVL2:
  64              	.LBB7:
  65              	.LBB8:
  66              		.file 3 "src/../h/tcb.hpp"
   1:src/../h/tcb.hpp **** //
   2:src/../h/tcb.hpp **** // Created by os on 5/8/24.
   3:src/../h/tcb.hpp **** //
   4:src/../h/tcb.hpp **** 
   5:src/../h/tcb.hpp **** #ifndef AM180263_CCB_H
   6:src/../h/tcb.hpp **** #define AM180263_CCB_H
   7:src/../h/tcb.hpp **** 
   8:src/../h/tcb.hpp **** #include "../lib/hw.h"
   9:src/../h/tcb.hpp **** #include "scheduler.hpp"
  10:src/../h/tcb.hpp **** #include "../h/syscall_cpp.hpp"
  11:src/../h/tcb.hpp **** #include "../h/MemoryAllocator.hpp"
  12:src/../h/tcb.hpp **** typedef TCB* thread_t;
  13:src/../h/tcb.hpp **** class Thread;
  14:src/../h/tcb.hpp **** 
  15:src/../h/tcb.hpp **** class TCB
  16:src/../h/tcb.hpp **** {
  17:src/../h/tcb.hpp **** public:
  18:src/../h/tcb.hpp **** 
  19:src/../h/tcb.hpp ****     static bool readyToPrintA;
  20:src/../h/tcb.hpp ****     static bool readyToPrintB;
  21:src/../h/tcb.hpp ****     static bool readyToPrintC;
  22:src/../h/tcb.hpp ****     static int timeSliceCounter;
  23:src/../h/tcb.hpp ****     //Thread* threadHandle;
  24:src/../h/tcb.hpp ****     ~TCB() { MemoryAllocator::memfree(stack);}
  67              		.loc 3 24 14 is_stmt 1
  68              		.loc 3 24 38 is_stmt 0
  69 0028 03B50401 		ld	a0,16(s1)
  70              	.LVL3:
  71 002c 97000000 		call	_ZN15MemoryAllocator7memfreeEPv@plt
  71      E7800000 
  72              	.LVL4:
  73              	.LBE8:
  74              	.LBE7:
  75              		.loc 2 33 12
  76 0034 13850400 		mv	a0,s1
  77 0038 97000000 		call	_ZdlPv@plt
  77      E7800000 
  78              	.LVL5:
  79              	.L3:
  80              	.LBE6:
  34:src/syscall_cpp.cpp **** }
  81              		.loc 2 34 1
  82 0040 83308101 		ld	ra,24(sp)
  83              		.cfi_restore 1
  84 0044 03340101 		ld	s0,16(sp)
  85              		.cfi_restore 8
  86              		.cfi_def_cfa 2, 32
  87 0048 83348100 		ld	s1,8(sp)
  88              		.cfi_restore 9
  89 004c 13010102 		addi	sp,sp,32
  90              		.cfi_def_cfa_offset 0
  91 0050 67800000 		jr	ra
GAS LISTING /tmp/ccBJBJI7.s 			page 4


  92              		.cfi_endproc
  93              	.LFE38:
  94              		.globl	__gxx_personality_v0
  95              		.section	.gcc_except_table,"a",@progbits
  96              	.LLSDA38:
  97 0000 FF       		.byte	0xff
  98 0001 FF       		.byte	0xff
  99 0002 03       		.byte	0x3
 100 0003 00       		.byte	0
 101              		.text
 103              		.globl	_ZN6ThreadD1Ev
 104              		.set	_ZN6ThreadD1Ev,_ZN6ThreadD2Ev
 105              		.align	2
 106              		.globl	_ZN6ThreadD0Ev
 108              	_ZN6ThreadD0Ev:
 109              	.LFB40:
  32:src/syscall_cpp.cpp ****     delete myHandle;
 110              		.loc 2 32 1 is_stmt 1
 111              		.cfi_startproc
 112              	.LVL6:
 113 0054 130101FE 		addi	sp,sp,-32
 114              		.cfi_def_cfa_offset 32
 115 0058 233C1100 		sd	ra,24(sp)
 116 005c 23388100 		sd	s0,16(sp)
 117 0060 23349100 		sd	s1,8(sp)
 118              		.cfi_offset 1, -8
 119              		.cfi_offset 8, -16
 120              		.cfi_offset 9, -24
 121 0064 13040102 		addi	s0,sp,32
 122              		.cfi_def_cfa 8, 0
 123 0068 93040500 		mv	s1,a0
 124              		.loc 2 34 1 is_stmt 0
 125 006c 97000000 		call	_ZN6ThreadD1Ev
 125      E7800000 
 126              	.LVL7:
 127 0074 13850400 		mv	a0,s1
 128 0078 97000000 		call	_ZdlPv@plt
 128      E7800000 
 129              	.LVL8:
 130 0080 83308101 		ld	ra,24(sp)
 131              		.cfi_restore 1
 132 0084 03340101 		ld	s0,16(sp)
 133              		.cfi_restore 8
 134              		.cfi_def_cfa 2, 32
 135 0088 83348100 		ld	s1,8(sp)
 136              		.cfi_restore 9
 137              	.LVL9:
 138 008c 13010102 		addi	sp,sp,32
 139              		.cfi_def_cfa_offset 0
 140 0090 67800000 		jr	ra
 141              		.cfi_endproc
 142              	.LFE40:
 144              		.align	2
 145              		.globl	_ZN9SemaphoreD2Ev
 147              	_ZN9SemaphoreD2Ev:
 148              	.LFB50:
  35:src/syscall_cpp.cpp **** 
GAS LISTING /tmp/ccBJBJI7.s 			page 5


  36:src/syscall_cpp.cpp **** int Thread::start() {
  37:src/syscall_cpp.cpp ****         //thread_create(&myHandle, this->body, this->arg);
  38:src/syscall_cpp.cpp ****     //myHandle->threadHandle = this;
  39:src/syscall_cpp.cpp **** Scheduler::put(myHandle);
  40:src/syscall_cpp.cpp **** return 0;
  41:src/syscall_cpp.cpp **** }
  42:src/syscall_cpp.cpp **** 
  43:src/syscall_cpp.cpp **** void Thread::dispatch() {
  44:src/syscall_cpp.cpp ****     thread_dispatch();
  45:src/syscall_cpp.cpp **** }
  46:src/syscall_cpp.cpp **** 
  47:src/syscall_cpp.cpp **** void Thread::join() {
  48:src/syscall_cpp.cpp ****     thread_join(myHandle);
  49:src/syscall_cpp.cpp **** }
  50:src/syscall_cpp.cpp **** 
  51:src/syscall_cpp.cpp **** int Thread::sleep(time_t) {
  52:src/syscall_cpp.cpp ****     return 0;
  53:src/syscall_cpp.cpp **** }
  54:src/syscall_cpp.cpp **** 
  55:src/syscall_cpp.cpp **** void Thread::runWrap(void *thread ) {
  56:src/syscall_cpp.cpp ****  if(thread!=nullptr) ((Thread* )thread)->run();
  57:src/syscall_cpp.cpp **** }
  58:src/syscall_cpp.cpp **** //-------------------------------semafori---------------------------------------------------
  59:src/syscall_cpp.cpp **** 
  60:src/syscall_cpp.cpp **** Semaphore::Semaphore(unsigned int init) {
  61:src/syscall_cpp.cpp ****     sem_open(&myHandle, init);
  62:src/syscall_cpp.cpp **** 
  63:src/syscall_cpp.cpp **** }
  64:src/syscall_cpp.cpp **** Semaphore::~Semaphore (){
 149              		.loc 2 64 1 is_stmt 1
 150              		.cfi_startproc
 151              		.cfi_personality 0x9b,DW.ref.__gxx_personality_v0
 152              		.cfi_lsda 0x1b,.LLSDA50
 153              	.LVL10:
 154 0094 130101FF 		addi	sp,sp,-16
 155              		.cfi_def_cfa_offset 16
 156 0098 23341100 		sd	ra,8(sp)
 157 009c 23308100 		sd	s0,0(sp)
 158              		.cfi_offset 1, -8
 159              		.cfi_offset 8, -16
 160 00a0 13040101 		addi	s0,sp,16
 161              		.cfi_def_cfa 8, 0
 162              	.LBB9:
 163              		.loc 2 64 24 is_stmt 0
 164 00a4 97070000 		lla	a5,_ZTV9Semaphore+16
 164      93870700 
 165 00ac 2330F500 		sd	a5,0(a0)
  65:src/syscall_cpp.cpp ****     sem_close(myHandle);
 166              		.loc 2 65 5 is_stmt 1
 167              		.loc 2 65 14 is_stmt 0
 168 00b0 03358500 		ld	a0,8(a0)
 169              	.LVL11:
 170 00b4 97000000 		call	_Z9sem_closeP3Sem@plt
 170      E7800000 
 171              	.LVL12:
 172              	.LBE9:
  66:src/syscall_cpp.cpp **** }
GAS LISTING /tmp/ccBJBJI7.s 			page 6


 173              		.loc 2 66 1
 174 00bc 83308100 		ld	ra,8(sp)
 175              		.cfi_restore 1
 176 00c0 03340100 		ld	s0,0(sp)
 177              		.cfi_restore 8
 178              		.cfi_def_cfa 2, 16
 179 00c4 13010101 		addi	sp,sp,16
 180              		.cfi_def_cfa_offset 0
 181 00c8 67800000 		jr	ra
 182              		.cfi_endproc
 183              	.LFE50:
 184              		.section	.gcc_except_table
 185              	.LLSDA50:
 186 0004 FF       		.byte	0xff
 187 0005 FF       		.byte	0xff
 188 0006 03       		.byte	0x3
 189 0007 00       		.byte	0
 190              		.text
 192              		.globl	_ZN9SemaphoreD1Ev
 193              		.set	_ZN9SemaphoreD1Ev,_ZN9SemaphoreD2Ev
 194              		.align	2
 195              		.globl	_ZN9SemaphoreD0Ev
 197              	_ZN9SemaphoreD0Ev:
 198              	.LFB52:
  64:src/syscall_cpp.cpp ****     sem_close(myHandle);
 199              		.loc 2 64 1 is_stmt 1
 200              		.cfi_startproc
 201              	.LVL13:
 202 00cc 130101FE 		addi	sp,sp,-32
 203              		.cfi_def_cfa_offset 32
 204 00d0 233C1100 		sd	ra,24(sp)
 205 00d4 23388100 		sd	s0,16(sp)
 206 00d8 23349100 		sd	s1,8(sp)
 207              		.cfi_offset 1, -8
 208              		.cfi_offset 8, -16
 209              		.cfi_offset 9, -24
 210 00dc 13040102 		addi	s0,sp,32
 211              		.cfi_def_cfa 8, 0
 212 00e0 93040500 		mv	s1,a0
 213              		.loc 2 66 1 is_stmt 0
 214 00e4 97000000 		call	_ZN9SemaphoreD1Ev
 214      E7800000 
 215              	.LVL14:
 216 00ec 13850400 		mv	a0,s1
 217 00f0 97000000 		call	_ZdlPv@plt
 217      E7800000 
 218              	.LVL15:
 219 00f8 83308101 		ld	ra,24(sp)
 220              		.cfi_restore 1
 221 00fc 03340101 		ld	s0,16(sp)
 222              		.cfi_restore 8
 223              		.cfi_def_cfa 2, 32
 224 0100 83348100 		ld	s1,8(sp)
 225              		.cfi_restore 9
 226              	.LVL16:
 227 0104 13010102 		addi	sp,sp,32
 228              		.cfi_def_cfa_offset 0
GAS LISTING /tmp/ccBJBJI7.s 			page 7


 229 0108 67800000 		jr	ra
 230              		.cfi_endproc
 231              	.LFE52:
 233              		.align	2
 234              		.globl	_ZN6ThreadC2EPFvPvES0_
 236              	_ZN6ThreadC2EPFvPvES0_:
 237              	.LFB30:
   9:src/syscall_cpp.cpp **** this->body = body;
 238              		.loc 2 9 1 is_stmt 1
 239              		.cfi_startproc
 240              	.LVL17:
 241 010c 130101FE 		addi	sp,sp,-32
 242              		.cfi_def_cfa_offset 32
 243 0110 233C1100 		sd	ra,24(sp)
 244 0114 23388100 		sd	s0,16(sp)
 245 0118 23349100 		sd	s1,8(sp)
 246              		.cfi_offset 1, -8
 247              		.cfi_offset 8, -16
 248              		.cfi_offset 9, -24
 249 011c 13040102 		addi	s0,sp,32
 250              		.cfi_def_cfa 8, 0
 251 0120 93040500 		mv	s1,a0
 252              	.LBB10:
   9:src/syscall_cpp.cpp **** this->body = body;
 253              		.loc 2 9 46 is_stmt 0
 254 0124 97070000 		lla	a5,_ZTV6Thread+16
 254      93870700 
 255 012c 2330F500 		sd	a5,0(a0)
  10:src/syscall_cpp.cpp **** this->arg = arg;
 256              		.loc 2 10 1 is_stmt 1
  10:src/syscall_cpp.cpp **** this->arg = arg;
 257              		.loc 2 10 12 is_stmt 0
 258 0130 2338B500 		sd	a1,16(a0)
  11:src/syscall_cpp.cpp ****     thread_create(&myHandle, this->body, this->arg);
 259              		.loc 2 11 1 is_stmt 1
  11:src/syscall_cpp.cpp ****     thread_create(&myHandle, this->body, this->arg);
 260              		.loc 2 11 11 is_stmt 0
 261 0134 233CC500 		sd	a2,24(a0)
  12:src/syscall_cpp.cpp ****     myHandle->threadHandle = this;
 262              		.loc 2 12 5 is_stmt 1
  12:src/syscall_cpp.cpp ****     myHandle->threadHandle = this;
 263              		.loc 2 12 18 is_stmt 0
 264 0138 13058500 		addi	a0,a0,8
 265              	.LVL18:
 266 013c 97000000 		call	_Z13thread_createPP3TCBPFvPvES2_@plt
 266      E7800000 
 267              	.LVL19:
  13:src/syscall_cpp.cpp **** }
 268              		.loc 2 13 5 is_stmt 1
 269 0144 83B78400 		ld	a5,8(s1)
  13:src/syscall_cpp.cpp **** }
 270              		.loc 2 13 28 is_stmt 0
 271 0148 23B09700 		sd	s1,0(a5)
 272              	.LBE10:
  14:src/syscall_cpp.cpp **** 
 273              		.loc 2 14 1
 274 014c 83308101 		ld	ra,24(sp)
GAS LISTING /tmp/ccBJBJI7.s 			page 8


 275              		.cfi_restore 1
 276 0150 03340101 		ld	s0,16(sp)
 277              		.cfi_restore 8
 278              		.cfi_def_cfa 2, 32
 279 0154 83348100 		ld	s1,8(sp)
 280              		.cfi_restore 9
 281              	.LVL20:
 282 0158 13010102 		addi	sp,sp,32
 283              		.cfi_def_cfa_offset 0
 284 015c 67800000 		jr	ra
 285              		.cfi_endproc
 286              	.LFE30:
 288              		.globl	_ZN6ThreadC1EPFvPvES0_
 289              		.set	_ZN6ThreadC1EPFvPvES0_,_ZN6ThreadC2EPFvPvES0_
 290              		.align	2
 291              		.globl	_ZN6Thread10setRunningEPS_
 293              	_ZN6Thread10setRunningEPS_:
 294              	.LFB32:
  16:src/syscall_cpp.cpp ****     TCB::running = thread->myHandle;
 295              		.loc 2 16 41 is_stmt 1
 296              		.cfi_startproc
 297              	.LVL21:
 298 0160 130101FF 		addi	sp,sp,-16
 299              		.cfi_def_cfa_offset 16
 300 0164 23348100 		sd	s0,8(sp)
 301              		.cfi_offset 8, -8
 302 0168 13040101 		addi	s0,sp,16
 303              		.cfi_def_cfa 8, 0
  17:src/syscall_cpp.cpp **** }
 304              		.loc 2 17 5
  17:src/syscall_cpp.cpp **** }
 305              		.loc 2 17 28 is_stmt 0
 306 016c 03378500 		ld	a4,8(a0)
  17:src/syscall_cpp.cpp **** }
 307              		.loc 2 17 18
 308 0170 97070000 		la	a5,_ZN3TCB7runningE
 308      83B70700 
 309 0178 23B0E700 		sd	a4,0(a5)
  18:src/syscall_cpp.cpp **** 
 310              		.loc 2 18 1
 311 017c 03348100 		ld	s0,8(sp)
 312              		.cfi_restore 8
 313              		.cfi_def_cfa 2, 16
 314 0180 13010101 		addi	sp,sp,16
 315              		.cfi_def_cfa_offset 0
 316 0184 67800000 		jr	ra
 317              		.cfi_endproc
 318              	.LFE32:
 320              		.align	2
 321              		.globl	_ZN6Thread7barrierEv
 323              	_ZN6Thread7barrierEv:
 324              	.LFB33:
  20:src/syscall_cpp.cpp ****     _barrier();
 325              		.loc 2 20 23 is_stmt 1
 326              		.cfi_startproc
 327 0188 130101FF 		addi	sp,sp,-16
 328              		.cfi_def_cfa_offset 16
GAS LISTING /tmp/ccBJBJI7.s 			page 9


 329 018c 23341100 		sd	ra,8(sp)
 330 0190 23308100 		sd	s0,0(sp)
 331              		.cfi_offset 1, -8
 332              		.cfi_offset 8, -16
 333 0194 13040101 		addi	s0,sp,16
 334              		.cfi_def_cfa 8, 0
  21:src/syscall_cpp.cpp **** }
 335              		.loc 2 21 5
  21:src/syscall_cpp.cpp **** }
 336              		.loc 2 21 13 is_stmt 0
 337 0198 97000000 		call	_Z8_barrierv@plt
 337      E7800000 
 338              	.LVL22:
  22:src/syscall_cpp.cpp **** 
 339              		.loc 2 22 1
 340 01a0 83308100 		ld	ra,8(sp)
 341              		.cfi_restore 1
 342 01a4 03340100 		ld	s0,0(sp)
 343              		.cfi_restore 8
 344              		.cfi_def_cfa 2, 16
 345 01a8 13010101 		addi	sp,sp,16
 346              		.cfi_def_cfa_offset 0
 347 01ac 67800000 		jr	ra
 348              		.cfi_endproc
 349              	.LFE33:
 351              		.align	2
 352              		.globl	_ZN6ThreadC2Ev
 354              	_ZN6ThreadC2Ev:
 355              	.LFB35:
  24:src/syscall_cpp.cpp **** //    this->body = nullptr;
 356              		.loc 2 24 1 is_stmt 1
 357              		.cfi_startproc
 358              	.LVL23:
 359 01b0 130101FE 		addi	sp,sp,-32
 360              		.cfi_def_cfa_offset 32
 361 01b4 233C1100 		sd	ra,24(sp)
 362 01b8 23388100 		sd	s0,16(sp)
 363 01bc 23349100 		sd	s1,8(sp)
 364              		.cfi_offset 1, -8
 365              		.cfi_offset 8, -16
 366              		.cfi_offset 9, -24
 367 01c0 13040102 		addi	s0,sp,32
 368              		.cfi_def_cfa 8, 0
 369 01c4 93040500 		mv	s1,a0
 370              	.LBB11:
  24:src/syscall_cpp.cpp **** //    this->body = nullptr;
 371              		.loc 2 24 16 is_stmt 0
 372 01c8 97070000 		lla	a5,_ZTV6Thread+16
 372      93870700 
 373 01d0 2330F500 		sd	a5,0(a0)
  27:src/syscall_cpp.cpp **** 
 374              		.loc 2 27 4 is_stmt 1
  27:src/syscall_cpp.cpp **** 
 375              		.loc 2 27 17 is_stmt 0
 376 01d4 13060000 		li	a2,0
 377 01d8 93050000 		li	a1,0
 378 01dc 13058500 		addi	a0,a0,8
GAS LISTING /tmp/ccBJBJI7.s 			page 10


 379              	.LVL24:
 380 01e0 97000000 		call	_Z13thread_createPP3TCBPFvPvES2_@plt
 380      E7800000 
 381              	.LVL25:
  29:src/syscall_cpp.cpp **** }
 382              		.loc 2 29 4 is_stmt 1
 383 01e8 83B78400 		ld	a5,8(s1)
  29:src/syscall_cpp.cpp **** }
 384              		.loc 2 29 27 is_stmt 0
 385 01ec 23B09700 		sd	s1,0(a5)
 386              	.LBE11:
  30:src/syscall_cpp.cpp **** 
 387              		.loc 2 30 1
 388 01f0 83308101 		ld	ra,24(sp)
 389              		.cfi_restore 1
 390 01f4 03340101 		ld	s0,16(sp)
 391              		.cfi_restore 8
 392              		.cfi_def_cfa 2, 32
 393 01f8 83348100 		ld	s1,8(sp)
 394              		.cfi_restore 9
 395              	.LVL26:
 396 01fc 13010102 		addi	sp,sp,32
 397              		.cfi_def_cfa_offset 0
 398 0200 67800000 		jr	ra
 399              		.cfi_endproc
 400              	.LFE35:
 402              		.globl	_ZN6ThreadC1Ev
 403              		.set	_ZN6ThreadC1Ev,_ZN6ThreadC2Ev
 404              		.align	2
 405              		.globl	_ZN6Thread5startEv
 407              	_ZN6Thread5startEv:
 408              	.LFB41:
  36:src/syscall_cpp.cpp ****         //thread_create(&myHandle, this->body, this->arg);
 409              		.loc 2 36 21 is_stmt 1
 410              		.cfi_startproc
 411              	.LVL27:
 412 0204 130101FF 		addi	sp,sp,-16
 413              		.cfi_def_cfa_offset 16
 414 0208 23341100 		sd	ra,8(sp)
 415 020c 23308100 		sd	s0,0(sp)
 416              		.cfi_offset 1, -8
 417              		.cfi_offset 8, -16
 418 0210 13040101 		addi	s0,sp,16
 419              		.cfi_def_cfa 8, 0
  39:src/syscall_cpp.cpp **** return 0;
 420              		.loc 2 39 1
  39:src/syscall_cpp.cpp **** return 0;
 421              		.loc 2 39 15 is_stmt 0
 422 0214 03358500 		ld	a0,8(a0)
 423              	.LVL28:
 424 0218 97000000 		call	_ZN9Scheduler3putEP3TCB@plt
 424      E7800000 
 425              	.LVL29:
  40:src/syscall_cpp.cpp **** }
 426              		.loc 2 40 1 is_stmt 1
  41:src/syscall_cpp.cpp **** 
 427              		.loc 2 41 1 is_stmt 0
GAS LISTING /tmp/ccBJBJI7.s 			page 11


 428 0220 13050000 		li	a0,0
 429 0224 83308100 		ld	ra,8(sp)
 430              		.cfi_restore 1
 431 0228 03340100 		ld	s0,0(sp)
 432              		.cfi_restore 8
 433              		.cfi_def_cfa 2, 16
 434 022c 13010101 		addi	sp,sp,16
 435              		.cfi_def_cfa_offset 0
 436 0230 67800000 		jr	ra
 437              		.cfi_endproc
 438              	.LFE41:
 440              		.align	2
 441              		.globl	_ZN6Thread8dispatchEv
 443              	_ZN6Thread8dispatchEv:
 444              	.LFB42:
  43:src/syscall_cpp.cpp ****     thread_dispatch();
 445              		.loc 2 43 25 is_stmt 1
 446              		.cfi_startproc
 447 0234 130101FF 		addi	sp,sp,-16
 448              		.cfi_def_cfa_offset 16
 449 0238 23341100 		sd	ra,8(sp)
 450 023c 23308100 		sd	s0,0(sp)
 451              		.cfi_offset 1, -8
 452              		.cfi_offset 8, -16
 453 0240 13040101 		addi	s0,sp,16
 454              		.cfi_def_cfa 8, 0
  44:src/syscall_cpp.cpp **** }
 455              		.loc 2 44 5
  44:src/syscall_cpp.cpp **** }
 456              		.loc 2 44 20 is_stmt 0
 457 0244 97000000 		call	_Z15thread_dispatchv@plt
 457      E7800000 
 458              	.LVL30:
  45:src/syscall_cpp.cpp **** 
 459              		.loc 2 45 1
 460 024c 83308100 		ld	ra,8(sp)
 461              		.cfi_restore 1
 462 0250 03340100 		ld	s0,0(sp)
 463              		.cfi_restore 8
 464              		.cfi_def_cfa 2, 16
 465 0254 13010101 		addi	sp,sp,16
 466              		.cfi_def_cfa_offset 0
 467 0258 67800000 		jr	ra
 468              		.cfi_endproc
 469              	.LFE42:
 471              		.align	2
 472              		.globl	_ZN6Thread4joinEv
 474              	_ZN6Thread4joinEv:
 475              	.LFB43:
  47:src/syscall_cpp.cpp ****     thread_join(myHandle);
 476              		.loc 2 47 21 is_stmt 1
 477              		.cfi_startproc
 478              	.LVL31:
 479 025c 130101FF 		addi	sp,sp,-16
 480              		.cfi_def_cfa_offset 16
 481 0260 23341100 		sd	ra,8(sp)
 482 0264 23308100 		sd	s0,0(sp)
GAS LISTING /tmp/ccBJBJI7.s 			page 12


 483              		.cfi_offset 1, -8
 484              		.cfi_offset 8, -16
 485 0268 13040101 		addi	s0,sp,16
 486              		.cfi_def_cfa 8, 0
  48:src/syscall_cpp.cpp **** }
 487              		.loc 2 48 5
  48:src/syscall_cpp.cpp **** }
 488              		.loc 2 48 16 is_stmt 0
 489 026c 03358500 		ld	a0,8(a0)
 490              	.LVL32:
 491 0270 97000000 		call	_Z11thread_joinP3TCB@plt
 491      E7800000 
 492              	.LVL33:
  49:src/syscall_cpp.cpp **** 
 493              		.loc 2 49 1
 494 0278 83308100 		ld	ra,8(sp)
 495              		.cfi_restore 1
 496 027c 03340100 		ld	s0,0(sp)
 497              		.cfi_restore 8
 498              		.cfi_def_cfa 2, 16
 499 0280 13010101 		addi	sp,sp,16
 500              		.cfi_def_cfa_offset 0
 501 0284 67800000 		jr	ra
 502              		.cfi_endproc
 503              	.LFE43:
 505              		.align	2
 506              		.globl	_ZN6Thread5sleepEm
 508              	_ZN6Thread5sleepEm:
 509              	.LFB44:
  51:src/syscall_cpp.cpp ****     return 0;
 510              		.loc 2 51 27 is_stmt 1
 511              		.cfi_startproc
 512 0288 130101FF 		addi	sp,sp,-16
 513              		.cfi_def_cfa_offset 16
 514 028c 23348100 		sd	s0,8(sp)
 515              		.cfi_offset 8, -8
 516 0290 13040101 		addi	s0,sp,16
 517              		.cfi_def_cfa 8, 0
  52:src/syscall_cpp.cpp **** }
 518              		.loc 2 52 5
  53:src/syscall_cpp.cpp **** 
 519              		.loc 2 53 1 is_stmt 0
 520 0294 13050000 		li	a0,0
 521 0298 03348100 		ld	s0,8(sp)
 522              		.cfi_restore 8
 523              		.cfi_def_cfa 2, 16
 524 029c 13010101 		addi	sp,sp,16
 525              		.cfi_def_cfa_offset 0
 526 02a0 67800000 		jr	ra
 527              		.cfi_endproc
 528              	.LFE44:
 530              		.align	2
 531              		.globl	_ZN6Thread7runWrapEPv
 533              	_ZN6Thread7runWrapEPv:
 534              	.LFB45:
  55:src/syscall_cpp.cpp ****  if(thread!=nullptr) ((Thread* )thread)->run();
 535              		.loc 2 55 37 is_stmt 1
GAS LISTING /tmp/ccBJBJI7.s 			page 13


 536              		.cfi_startproc
 537              	.LVL34:
  56:src/syscall_cpp.cpp **** }
 538              		.loc 2 56 2
 539 02a4 63080502 		beqz	a0,.L31
  55:src/syscall_cpp.cpp ****  if(thread!=nullptr) ((Thread* )thread)->run();
 540              		.loc 2 55 37 is_stmt 0 discriminator 1
 541 02a8 130101FF 		addi	sp,sp,-16
 542              		.cfi_def_cfa_offset 16
 543 02ac 23341100 		sd	ra,8(sp)
 544 02b0 23308100 		sd	s0,0(sp)
 545              		.cfi_offset 1, -8
 546              		.cfi_offset 8, -16
 547 02b4 13040101 		addi	s0,sp,16
 548              		.cfi_def_cfa 8, 0
  56:src/syscall_cpp.cpp **** }
 549              		.loc 2 56 22 is_stmt 1 discriminator 1
  56:src/syscall_cpp.cpp **** }
 550              		.loc 2 56 46 is_stmt 0 discriminator 1
 551 02b8 83370500 		ld	a5,0(a0)
 552 02bc 83B70701 		ld	a5,16(a5)
  56:src/syscall_cpp.cpp **** }
 553              		.loc 2 56 45 discriminator 1
 554 02c0 E7800700 		jalr	a5
 555              	.LVL35:
  57:src/syscall_cpp.cpp **** //-------------------------------semafori---------------------------------------------------
 556              		.loc 2 57 1 discriminator 1
 557 02c4 83308100 		ld	ra,8(sp)
 558              		.cfi_restore 1
 559 02c8 03340100 		ld	s0,0(sp)
 560              		.cfi_restore 8
 561              		.cfi_def_cfa 2, 16
 562 02cc 13010101 		addi	sp,sp,16
 563              		.cfi_def_cfa_offset 0
 564 02d0 67800000 		jr	ra
 565              	.LVL36:
 566              	.L31:
 567 02d4 67800000 		ret
 568              		.cfi_endproc
 569              	.LFE45:
 571              		.align	2
 572              		.globl	_ZN9SemaphoreC2Ej
 574              	_ZN9SemaphoreC2Ej:
 575              	.LFB47:
  60:src/syscall_cpp.cpp ****     sem_open(&myHandle, init);
 576              		.loc 2 60 1 is_stmt 1
 577              		.cfi_startproc
 578              	.LVL37:
 579 02d8 130101FF 		addi	sp,sp,-16
 580              		.cfi_def_cfa_offset 16
 581 02dc 23341100 		sd	ra,8(sp)
 582 02e0 23308100 		sd	s0,0(sp)
 583              		.cfi_offset 1, -8
 584              		.cfi_offset 8, -16
 585 02e4 13040101 		addi	s0,sp,16
 586              		.cfi_def_cfa 8, 0
 587              	.LBB12:
GAS LISTING /tmp/ccBJBJI7.s 			page 14


  60:src/syscall_cpp.cpp ****     sem_open(&myHandle, init);
 588              		.loc 2 60 39 is_stmt 0
 589 02e8 97070000 		lla	a5,_ZTV9Semaphore+16
 589      93870700 
 590 02f0 2330F500 		sd	a5,0(a0)
  61:src/syscall_cpp.cpp **** 
 591              		.loc 2 61 5 is_stmt 1
  61:src/syscall_cpp.cpp **** 
 592              		.loc 2 61 13 is_stmt 0
 593 02f4 13058500 		addi	a0,a0,8
 594              	.LVL38:
 595 02f8 97000000 		call	_Z8sem_openPP3Semj@plt
 595      E7800000 
 596              	.LVL39:
 597              	.LBE12:
  63:src/syscall_cpp.cpp **** Semaphore::~Semaphore (){
 598              		.loc 2 63 1
 599 0300 83308100 		ld	ra,8(sp)
 600              		.cfi_restore 1
 601 0304 03340100 		ld	s0,0(sp)
 602              		.cfi_restore 8
 603              		.cfi_def_cfa 2, 16
 604 0308 13010101 		addi	sp,sp,16
 605              		.cfi_def_cfa_offset 0
 606 030c 67800000 		jr	ra
 607              		.cfi_endproc
 608              	.LFE47:
 610              		.globl	_ZN9SemaphoreC1Ej
 611              		.set	_ZN9SemaphoreC1Ej,_ZN9SemaphoreC2Ej
 612              		.align	2
 613              		.globl	_ZN9Semaphore4waitEv
 615              	_ZN9Semaphore4waitEv:
 616              	.LFB53:
  67:src/syscall_cpp.cpp **** int Semaphore::wait() {
 617              		.loc 2 67 23 is_stmt 1
 618              		.cfi_startproc
 619              	.LVL40:
 620 0310 130101FF 		addi	sp,sp,-16
 621              		.cfi_def_cfa_offset 16
 622 0314 23341100 		sd	ra,8(sp)
 623 0318 23308100 		sd	s0,0(sp)
 624              		.cfi_offset 1, -8
 625              		.cfi_offset 8, -16
 626 031c 13040101 		addi	s0,sp,16
 627              		.cfi_def_cfa 8, 0
  68:src/syscall_cpp.cpp ****     return sem_wait(myHandle);
 628              		.loc 2 68 5
 629              		.loc 2 68 20 is_stmt 0
 630 0320 03358500 		ld	a0,8(a0)
 631              	.LVL41:
 632 0324 97000000 		call	_Z8sem_waitP3Sem@plt
 632      E7800000 
 633              	.LVL42:
  69:src/syscall_cpp.cpp **** }
 634              		.loc 2 69 1
 635 032c 83308100 		ld	ra,8(sp)
 636              		.cfi_restore 1
GAS LISTING /tmp/ccBJBJI7.s 			page 15


 637 0330 03340100 		ld	s0,0(sp)
 638              		.cfi_restore 8
 639              		.cfi_def_cfa 2, 16
 640 0334 13010101 		addi	sp,sp,16
 641              		.cfi_def_cfa_offset 0
 642 0338 67800000 		jr	ra
 643              		.cfi_endproc
 644              	.LFE53:
 646              		.align	2
 647              		.globl	_ZN9Semaphore6signalEv
 649              	_ZN9Semaphore6signalEv:
 650              	.LFB54:
  70:src/syscall_cpp.cpp **** int Semaphore::signal(){
 651              		.loc 2 70 24 is_stmt 1
 652              		.cfi_startproc
 653              	.LVL43:
 654 033c 130101FF 		addi	sp,sp,-16
 655              		.cfi_def_cfa_offset 16
 656 0340 23341100 		sd	ra,8(sp)
 657 0344 23308100 		sd	s0,0(sp)
 658              		.cfi_offset 1, -8
 659              		.cfi_offset 8, -16
 660 0348 13040101 		addi	s0,sp,16
 661              		.cfi_def_cfa 8, 0
  71:src/syscall_cpp.cpp ****     return sem_signal(myHandle);
 662              		.loc 2 71 5
 663              		.loc 2 71 22 is_stmt 0
 664 034c 03358500 		ld	a0,8(a0)
 665              	.LVL44:
 666 0350 97000000 		call	_Z10sem_signalP3Sem@plt
 666      E7800000 
 667              	.LVL45:
  72:src/syscall_cpp.cpp **** }
 668              		.loc 2 72 1
 669 0358 83308100 		ld	ra,8(sp)
 670              		.cfi_restore 1
 671 035c 03340100 		ld	s0,0(sp)
 672              		.cfi_restore 8
 673              		.cfi_def_cfa 2, 16
 674 0360 13010101 		addi	sp,sp,16
 675              		.cfi_def_cfa_offset 0
 676 0364 67800000 		jr	ra
 677              		.cfi_endproc
 678              	.LFE54:
 680              		.align	2
 681              		.globl	_ZN9Semaphore7tryWaitEv
 683              	_ZN9Semaphore7tryWaitEv:
 684              	.LFB55:
  73:src/syscall_cpp.cpp **** int Semaphore::tryWait() {
 685              		.loc 2 73 26 is_stmt 1
 686              		.cfi_startproc
 687              	.LVL46:
 688 0368 130101FF 		addi	sp,sp,-16
 689              		.cfi_def_cfa_offset 16
 690 036c 23341100 		sd	ra,8(sp)
 691 0370 23308100 		sd	s0,0(sp)
 692              		.cfi_offset 1, -8
GAS LISTING /tmp/ccBJBJI7.s 			page 16


 693              		.cfi_offset 8, -16
 694 0374 13040101 		addi	s0,sp,16
 695              		.cfi_def_cfa 8, 0
  74:src/syscall_cpp.cpp ****     return sem_trywait(myHandle);
 696              		.loc 2 74 5
 697              		.loc 2 74 23 is_stmt 0
 698 0378 03358500 		ld	a0,8(a0)
 699              	.LVL47:
 700 037c 97000000 		call	_Z11sem_trywaitP3Sem@plt
 700      E7800000 
 701              	.LVL48:
  75:src/syscall_cpp.cpp **** }
 702              		.loc 2 75 1
 703 0384 83308100 		ld	ra,8(sp)
 704              		.cfi_restore 1
 705 0388 03340100 		ld	s0,0(sp)
 706              		.cfi_restore 8
 707              		.cfi_def_cfa 2, 16
 708 038c 13010101 		addi	sp,sp,16
 709              		.cfi_def_cfa_offset 0
 710 0390 67800000 		jr	ra
 711              		.cfi_endproc
 712              	.LFE55:
 714              		.align	2
 715              		.globl	_ZN9Semaphore9timedWaitEm
 717              	_ZN9Semaphore9timedWaitEm:
 718              	.LFB56:
  76:src/syscall_cpp.cpp **** 
  77:src/syscall_cpp.cpp **** int Semaphore::timedWait(time_t time) {
 719              		.loc 2 77 39 is_stmt 1
 720              		.cfi_startproc
 721              	.LVL49:
 722 0394 130101FF 		addi	sp,sp,-16
 723              		.cfi_def_cfa_offset 16
 724 0398 23341100 		sd	ra,8(sp)
 725 039c 23308100 		sd	s0,0(sp)
 726              		.cfi_offset 1, -8
 727              		.cfi_offset 8, -16
 728 03a0 13040101 		addi	s0,sp,16
 729              		.cfi_def_cfa 8, 0
  78:src/syscall_cpp.cpp ****     return sem_timedwait(myHandle, time);
 730              		.loc 2 78 5
 731              		.loc 2 78 25 is_stmt 0
 732 03a4 03358500 		ld	a0,8(a0)
 733              	.LVL50:
 734 03a8 97000000 		call	_Z13sem_timedwaitP3Semm@plt
 734      E7800000 
 735              	.LVL51:
  79:src/syscall_cpp.cpp **** }
 736              		.loc 2 79 1
 737 03b0 83308100 		ld	ra,8(sp)
 738              		.cfi_restore 1
 739 03b4 03340100 		ld	s0,0(sp)
 740              		.cfi_restore 8
 741              		.cfi_def_cfa 2, 16
 742 03b8 13010101 		addi	sp,sp,16
 743              		.cfi_def_cfa_offset 0
GAS LISTING /tmp/ccBJBJI7.s 			page 17


 744 03bc 67800000 		jr	ra
 745              		.cfi_endproc
 746              	.LFE56:
 748              		.align	2
 749              		.globl	_ZN7Console4getcEv
 751              	_ZN7Console4getcEv:
 752              	.LFB57:
  80:src/syscall_cpp.cpp **** 
  81:src/syscall_cpp.cpp **** 
  82:src/syscall_cpp.cpp **** //----------------------------------periodic thread-----------------------------------------
  83:src/syscall_cpp.cpp **** 
  84:src/syscall_cpp.cpp **** //----------------------------------console-------------------------------------------------
  85:src/syscall_cpp.cpp **** char Console::getc () {
 753              		.loc 2 85 23 is_stmt 1
 754              		.cfi_startproc
 755 03c0 130101FF 		addi	sp,sp,-16
 756              		.cfi_def_cfa_offset 16
 757 03c4 23341100 		sd	ra,8(sp)
 758 03c8 23308100 		sd	s0,0(sp)
 759              		.cfi_offset 1, -8
 760              		.cfi_offset 8, -16
 761 03cc 13040101 		addi	s0,sp,16
 762              		.cfi_def_cfa 8, 0
  86:src/syscall_cpp.cpp ****     return ::getc();
 763              		.loc 2 86 5
 764              		.loc 2 86 18 is_stmt 0
 765 03d0 97000000 		call	_Z4getcv@plt
 765      E7800000 
 766              	.LVL52:
  87:src/syscall_cpp.cpp **** }
 767              		.loc 2 87 1
 768 03d8 83308100 		ld	ra,8(sp)
 769              		.cfi_restore 1
 770 03dc 03340100 		ld	s0,0(sp)
 771              		.cfi_restore 8
 772              		.cfi_def_cfa 2, 16
 773 03e0 13010101 		addi	sp,sp,16
 774              		.cfi_def_cfa_offset 0
 775 03e4 67800000 		jr	ra
 776              		.cfi_endproc
 777              	.LFE57:
 779              		.align	2
 780              		.globl	_ZN7Console4putcEc
 782              	_ZN7Console4putcEc:
 783              	.LFB58:
  88:src/syscall_cpp.cpp **** void Console::putc (char c) {
 784              		.loc 2 88 29 is_stmt 1
 785              		.cfi_startproc
 786              	.LVL53:
 787 03e8 130101FF 		addi	sp,sp,-16
 788              		.cfi_def_cfa_offset 16
 789 03ec 23341100 		sd	ra,8(sp)
 790 03f0 23308100 		sd	s0,0(sp)
 791              		.cfi_offset 1, -8
 792              		.cfi_offset 8, -16
 793 03f4 13040101 		addi	s0,sp,16
 794              		.cfi_def_cfa 8, 0
GAS LISTING /tmp/ccBJBJI7.s 			page 18


  89:src/syscall_cpp.cpp ****     ::putc(c);
 795              		.loc 2 89 5
 796              		.loc 2 89 11 is_stmt 0
 797 03f8 97000000 		call	_Z4putcc@plt
 797      E7800000 
 798              	.LVL54:
  90:src/syscall_cpp.cpp **** }
 799              		.loc 2 90 1
 800 0400 83308100 		ld	ra,8(sp)
 801              		.cfi_restore 1
 802 0404 03340100 		ld	s0,0(sp)
 803              		.cfi_restore 8
 804              		.cfi_def_cfa 2, 16
 805 0408 13010101 		addi	sp,sp,16
 806              		.cfi_def_cfa_offset 0
 807 040c 67800000 		jr	ra
 808              		.cfi_endproc
 809              	.LFE58:
 811              		.weak	_ZTV6Thread
 812              		.section	.data.rel.ro.local._ZTV6Thread,"awG",@progbits,_ZTV6Thread,comdat
 813              		.align	3
 816              	_ZTV6Thread:
 817 0000 00000000 		.dword	0
 817      00000000 
 818 0008 00000000 		.dword	0
 818      00000000 
 819 0010 00000000 		.dword	_ZN6ThreadD1Ev
 819      00000000 
 820 0018 00000000 		.dword	_ZN6ThreadD0Ev
 820      00000000 
 821 0020 00000000 		.dword	_ZN6Thread3runEv
 821      00000000 
 822              		.weak	_ZTV9Semaphore
 823              		.section	.data.rel.ro.local._ZTV9Semaphore,"awG",@progbits,_ZTV9Semaphore,comdat
 824              		.align	3
 827              	_ZTV9Semaphore:
 828 0000 00000000 		.dword	0
 828      00000000 
 829 0008 00000000 		.dword	0
 829      00000000 
 830 0010 00000000 		.dword	_ZN9SemaphoreD1Ev
 830      00000000 
 831 0018 00000000 		.dword	_ZN9SemaphoreD0Ev
 831      00000000 
 832              		.text
 833              	.Letext0:
 834              		.file 4 "src/../h/../lib/hw.h"
 835              		.file 5 "src/../h/syscall_c.hpp"
 836              		.file 6 "src/../h/scheduler.hpp"
 837              		.file 7 "src/../h/list.hpp"
 838              		.file 8 "src/../h/../h/MemoryAllocator.hpp"
 4777              		.align	3
 4780              	DW.ref.__gxx_personality_v0:
 4781 0000 00000000 		.dword	__gxx_personality_v0
 4781      00000000 
 4782              		.ident	"GCC: (Ubuntu 9.4.0-1ubuntu1~20.04) 9.4.0"
 4783              		.section	.note.GNU-stack,"",@progbits
GAS LISTING /tmp/ccBJBJI7.s 			page 19


GAS LISTING /tmp/ccBJBJI7.s 			page 20


DEFINED SYMBOLS
                            *ABS*:0000000000000000 syscall_cpp.cpp
     /tmp/ccBJBJI7.s:10     .text._ZN6Thread3runEv:0000000000000000 _ZN6Thread3runEv
     /tmp/ccBJBJI7.s:14     .text._ZN6Thread3runEv:0000000000000000 .L0 
     /tmp/ccBJBJI7.s:16     .text._ZN6Thread3runEv:0000000000000000 .L0 
     /tmp/ccBJBJI7.s:17     .text._ZN6Thread3runEv:0000000000000004 .L0 
     /tmp/ccBJBJI7.s:19     .text._ZN6Thread3runEv:0000000000000008 .L0 
     /tmp/ccBJBJI7.s:21     .text._ZN6Thread3runEv:000000000000000c .L0 
     /tmp/ccBJBJI7.s:23     .text._ZN6Thread3runEv:000000000000000c .L0 
     /tmp/ccBJBJI7.s:24     .text._ZN6Thread3runEv:0000000000000010 .L0 
     /tmp/ccBJBJI7.s:25     .text._ZN6Thread3runEv:0000000000000010 .L0 
     /tmp/ccBJBJI7.s:27     .text._ZN6Thread3runEv:0000000000000014 .L0 
     /tmp/ccBJBJI7.s:29     .text._ZN6Thread3runEv:0000000000000018 .L0 
     /tmp/ccBJBJI7.s:36     .text:0000000000000000 _ZN6ThreadD2Ev
     /tmp/ccBJBJI7.s:40     .text:0000000000000000 .L0 
     /tmp/ccBJBJI7.s:4780   .data.rel.local.DW.ref.__gxx_personality_v0:0000000000000000 DW.ref.__gxx_personality_v0
     /tmp/ccBJBJI7.s:44     .text:0000000000000000 .L0 
     /tmp/ccBJBJI7.s:45     .text:0000000000000004 .L0 
     /tmp/ccBJBJI7.s:49     .text:0000000000000010 .L0 
     /tmp/ccBJBJI7.s:50     .text:0000000000000010 .L0 
     /tmp/ccBJBJI7.s:51     .text:0000000000000010 .L0 
     /tmp/ccBJBJI7.s:53     .text:0000000000000014 .L0 
     /tmp/ccBJBJI7.s:816    .data.rel.ro.local._ZTV6Thread:0000000000000000 _ZTV6Thread
     /tmp/ccBJBJI7.s:56     .text:0000000000000014 .L0 
     /tmp/ccBJBJI7.s:59     .text:0000000000000020 .L0 
     /tmp/ccBJBJI7.s:60     .text:0000000000000020 .L0 
     /tmp/ccBJBJI7.s:62     .text:0000000000000024 .L0 
     /tmp/ccBJBJI7.s:68     .text:0000000000000028 .L0 
     /tmp/ccBJBJI7.s:69     .text:0000000000000028 .L0 
     /tmp/ccBJBJI7.s:76     .text:0000000000000034 .L0 
     /tmp/ccBJBJI7.s:82     .text:0000000000000040 .L0 
     /tmp/ccBJBJI7.s:83     .text:0000000000000044 .L0 
     /tmp/ccBJBJI7.s:85     .text:0000000000000048 .L0 
     /tmp/ccBJBJI7.s:86     .text:0000000000000048 .L0 
     /tmp/ccBJBJI7.s:88     .text:000000000000004c .L0 
     /tmp/ccBJBJI7.s:90     .text:0000000000000050 .L0 
     /tmp/ccBJBJI7.s:92     .text:0000000000000054 .L0 
     /tmp/ccBJBJI7.s:36     .text:0000000000000000 _ZN6ThreadD1Ev
     /tmp/ccBJBJI7.s:108    .text:0000000000000054 _ZN6ThreadD0Ev
     /tmp/ccBJBJI7.s:111    .text:0000000000000054 .L0 
     /tmp/ccBJBJI7.s:113    .text:0000000000000054 .L0 
     /tmp/ccBJBJI7.s:114    .text:0000000000000058 .L0 
     /tmp/ccBJBJI7.s:118    .text:0000000000000064 .L0 
     /tmp/ccBJBJI7.s:119    .text:0000000000000064 .L0 
     /tmp/ccBJBJI7.s:120    .text:0000000000000064 .L0 
     /tmp/ccBJBJI7.s:122    .text:0000000000000068 .L0 
     /tmp/ccBJBJI7.s:125    .text:000000000000006c .L0 
     /tmp/ccBJBJI7.s:131    .text:0000000000000084 .L0 
     /tmp/ccBJBJI7.s:133    .text:0000000000000088 .L0 
     /tmp/ccBJBJI7.s:134    .text:0000000000000088 .L0 
     /tmp/ccBJBJI7.s:136    .text:000000000000008c .L0 
     /tmp/ccBJBJI7.s:139    .text:0000000000000090 .L0 
     /tmp/ccBJBJI7.s:141    .text:0000000000000094 .L0 
     /tmp/ccBJBJI7.s:147    .text:0000000000000094 _ZN9SemaphoreD2Ev
     /tmp/ccBJBJI7.s:150    .text:0000000000000094 .L0 
     /tmp/ccBJBJI7.s:154    .text:0000000000000094 .L0 
     /tmp/ccBJBJI7.s:155    .text:0000000000000098 .L0 
GAS LISTING /tmp/ccBJBJI7.s 			page 21


     /tmp/ccBJBJI7.s:158    .text:00000000000000a0 .L0 
     /tmp/ccBJBJI7.s:159    .text:00000000000000a0 .L0 
     /tmp/ccBJBJI7.s:161    .text:00000000000000a4 .L0 
     /tmp/ccBJBJI7.s:827    .data.rel.ro.local._ZTV9Semaphore:0000000000000000 _ZTV9Semaphore
     /tmp/ccBJBJI7.s:164    .text:00000000000000a4 .L0 
     /tmp/ccBJBJI7.s:167    .text:00000000000000b0 .L0 
     /tmp/ccBJBJI7.s:168    .text:00000000000000b0 .L0 
     /tmp/ccBJBJI7.s:174    .text:00000000000000bc .L0 
     /tmp/ccBJBJI7.s:175    .text:00000000000000c0 .L0 
     /tmp/ccBJBJI7.s:177    .text:00000000000000c4 .L0 
     /tmp/ccBJBJI7.s:178    .text:00000000000000c4 .L0 
     /tmp/ccBJBJI7.s:180    .text:00000000000000c8 .L0 
     /tmp/ccBJBJI7.s:182    .text:00000000000000cc .L0 
     /tmp/ccBJBJI7.s:147    .text:0000000000000094 _ZN9SemaphoreD1Ev
     /tmp/ccBJBJI7.s:197    .text:00000000000000cc _ZN9SemaphoreD0Ev
     /tmp/ccBJBJI7.s:200    .text:00000000000000cc .L0 
     /tmp/ccBJBJI7.s:202    .text:00000000000000cc .L0 
     /tmp/ccBJBJI7.s:203    .text:00000000000000d0 .L0 
     /tmp/ccBJBJI7.s:207    .text:00000000000000dc .L0 
     /tmp/ccBJBJI7.s:208    .text:00000000000000dc .L0 
     /tmp/ccBJBJI7.s:209    .text:00000000000000dc .L0 
     /tmp/ccBJBJI7.s:211    .text:00000000000000e0 .L0 
     /tmp/ccBJBJI7.s:214    .text:00000000000000e4 .L0 
     /tmp/ccBJBJI7.s:220    .text:00000000000000fc .L0 
     /tmp/ccBJBJI7.s:222    .text:0000000000000100 .L0 
     /tmp/ccBJBJI7.s:223    .text:0000000000000100 .L0 
     /tmp/ccBJBJI7.s:225    .text:0000000000000104 .L0 
     /tmp/ccBJBJI7.s:228    .text:0000000000000108 .L0 
     /tmp/ccBJBJI7.s:230    .text:000000000000010c .L0 
     /tmp/ccBJBJI7.s:236    .text:000000000000010c _ZN6ThreadC2EPFvPvES0_
     /tmp/ccBJBJI7.s:239    .text:000000000000010c .L0 
     /tmp/ccBJBJI7.s:241    .text:000000000000010c .L0 
     /tmp/ccBJBJI7.s:242    .text:0000000000000110 .L0 
     /tmp/ccBJBJI7.s:246    .text:000000000000011c .L0 
     /tmp/ccBJBJI7.s:247    .text:000000000000011c .L0 
     /tmp/ccBJBJI7.s:248    .text:000000000000011c .L0 
     /tmp/ccBJBJI7.s:250    .text:0000000000000120 .L0 
     /tmp/ccBJBJI7.s:254    .text:0000000000000124 .L0 
     /tmp/ccBJBJI7.s:257    .text:0000000000000130 .L0 
     /tmp/ccBJBJI7.s:258    .text:0000000000000130 .L0 
     /tmp/ccBJBJI7.s:260    .text:0000000000000134 .L0 
     /tmp/ccBJBJI7.s:261    .text:0000000000000134 .L0 
     /tmp/ccBJBJI7.s:263    .text:0000000000000138 .L0 
     /tmp/ccBJBJI7.s:264    .text:0000000000000138 .L0 
     /tmp/ccBJBJI7.s:269    .text:0000000000000144 .L0 
     /tmp/ccBJBJI7.s:271    .text:0000000000000148 .L0 
     /tmp/ccBJBJI7.s:274    .text:000000000000014c .L0 
     /tmp/ccBJBJI7.s:275    .text:0000000000000150 .L0 
     /tmp/ccBJBJI7.s:277    .text:0000000000000154 .L0 
     /tmp/ccBJBJI7.s:278    .text:0000000000000154 .L0 
     /tmp/ccBJBJI7.s:280    .text:0000000000000158 .L0 
     /tmp/ccBJBJI7.s:283    .text:000000000000015c .L0 
     /tmp/ccBJBJI7.s:285    .text:0000000000000160 .L0 
     /tmp/ccBJBJI7.s:236    .text:000000000000010c _ZN6ThreadC1EPFvPvES0_
     /tmp/ccBJBJI7.s:293    .text:0000000000000160 _ZN6Thread10setRunningEPS_
     /tmp/ccBJBJI7.s:296    .text:0000000000000160 .L0 
     /tmp/ccBJBJI7.s:298    .text:0000000000000160 .L0 
GAS LISTING /tmp/ccBJBJI7.s 			page 22


     /tmp/ccBJBJI7.s:299    .text:0000000000000164 .L0 
     /tmp/ccBJBJI7.s:301    .text:0000000000000168 .L0 
     /tmp/ccBJBJI7.s:303    .text:000000000000016c .L0 
     /tmp/ccBJBJI7.s:305    .text:000000000000016c .L0 
     /tmp/ccBJBJI7.s:306    .text:000000000000016c .L0 
     /tmp/ccBJBJI7.s:308    .text:0000000000000170 .L0 
     /tmp/ccBJBJI7.s:311    .text:000000000000017c .L0 
     /tmp/ccBJBJI7.s:312    .text:0000000000000180 .L0 
     /tmp/ccBJBJI7.s:313    .text:0000000000000180 .L0 
     /tmp/ccBJBJI7.s:315    .text:0000000000000184 .L0 
     /tmp/ccBJBJI7.s:317    .text:0000000000000188 .L0 
     /tmp/ccBJBJI7.s:323    .text:0000000000000188 _ZN6Thread7barrierEv
     /tmp/ccBJBJI7.s:326    .text:0000000000000188 .L0 
     /tmp/ccBJBJI7.s:327    .text:0000000000000188 .L0 
     /tmp/ccBJBJI7.s:328    .text:000000000000018c .L0 
     /tmp/ccBJBJI7.s:331    .text:0000000000000194 .L0 
     /tmp/ccBJBJI7.s:332    .text:0000000000000194 .L0 
     /tmp/ccBJBJI7.s:334    .text:0000000000000198 .L0 
     /tmp/ccBJBJI7.s:336    .text:0000000000000198 .L0 
     /tmp/ccBJBJI7.s:337    .text:0000000000000198 .L0 
     /tmp/ccBJBJI7.s:340    .text:00000000000001a0 .L0 
     /tmp/ccBJBJI7.s:341    .text:00000000000001a4 .L0 
     /tmp/ccBJBJI7.s:343    .text:00000000000001a8 .L0 
     /tmp/ccBJBJI7.s:344    .text:00000000000001a8 .L0 
     /tmp/ccBJBJI7.s:346    .text:00000000000001ac .L0 
     /tmp/ccBJBJI7.s:348    .text:00000000000001b0 .L0 
     /tmp/ccBJBJI7.s:354    .text:00000000000001b0 _ZN6ThreadC2Ev
     /tmp/ccBJBJI7.s:357    .text:00000000000001b0 .L0 
     /tmp/ccBJBJI7.s:359    .text:00000000000001b0 .L0 
     /tmp/ccBJBJI7.s:360    .text:00000000000001b4 .L0 
     /tmp/ccBJBJI7.s:364    .text:00000000000001c0 .L0 
     /tmp/ccBJBJI7.s:365    .text:00000000000001c0 .L0 
     /tmp/ccBJBJI7.s:366    .text:00000000000001c0 .L0 
     /tmp/ccBJBJI7.s:368    .text:00000000000001c4 .L0 
     /tmp/ccBJBJI7.s:372    .text:00000000000001c8 .L0 
     /tmp/ccBJBJI7.s:375    .text:00000000000001d4 .L0 
     /tmp/ccBJBJI7.s:376    .text:00000000000001d4 .L0 
     /tmp/ccBJBJI7.s:383    .text:00000000000001e8 .L0 
     /tmp/ccBJBJI7.s:385    .text:00000000000001ec .L0 
     /tmp/ccBJBJI7.s:388    .text:00000000000001f0 .L0 
     /tmp/ccBJBJI7.s:389    .text:00000000000001f4 .L0 
     /tmp/ccBJBJI7.s:391    .text:00000000000001f8 .L0 
     /tmp/ccBJBJI7.s:392    .text:00000000000001f8 .L0 
     /tmp/ccBJBJI7.s:394    .text:00000000000001fc .L0 
     /tmp/ccBJBJI7.s:397    .text:0000000000000200 .L0 
     /tmp/ccBJBJI7.s:399    .text:0000000000000204 .L0 
     /tmp/ccBJBJI7.s:354    .text:00000000000001b0 _ZN6ThreadC1Ev
     /tmp/ccBJBJI7.s:407    .text:0000000000000204 _ZN6Thread5startEv
     /tmp/ccBJBJI7.s:410    .text:0000000000000204 .L0 
     /tmp/ccBJBJI7.s:412    .text:0000000000000204 .L0 
     /tmp/ccBJBJI7.s:413    .text:0000000000000208 .L0 
     /tmp/ccBJBJI7.s:416    .text:0000000000000210 .L0 
     /tmp/ccBJBJI7.s:417    .text:0000000000000210 .L0 
     /tmp/ccBJBJI7.s:419    .text:0000000000000214 .L0 
     /tmp/ccBJBJI7.s:421    .text:0000000000000214 .L0 
     /tmp/ccBJBJI7.s:422    .text:0000000000000214 .L0 
     /tmp/ccBJBJI7.s:427    .text:0000000000000220 .L0 
GAS LISTING /tmp/ccBJBJI7.s 			page 23


     /tmp/ccBJBJI7.s:428    .text:0000000000000220 .L0 
     /tmp/ccBJBJI7.s:430    .text:0000000000000228 .L0 
     /tmp/ccBJBJI7.s:432    .text:000000000000022c .L0 
     /tmp/ccBJBJI7.s:433    .text:000000000000022c .L0 
     /tmp/ccBJBJI7.s:435    .text:0000000000000230 .L0 
     /tmp/ccBJBJI7.s:437    .text:0000000000000234 .L0 
     /tmp/ccBJBJI7.s:443    .text:0000000000000234 _ZN6Thread8dispatchEv
     /tmp/ccBJBJI7.s:446    .text:0000000000000234 .L0 
     /tmp/ccBJBJI7.s:447    .text:0000000000000234 .L0 
     /tmp/ccBJBJI7.s:448    .text:0000000000000238 .L0 
     /tmp/ccBJBJI7.s:451    .text:0000000000000240 .L0 
     /tmp/ccBJBJI7.s:452    .text:0000000000000240 .L0 
     /tmp/ccBJBJI7.s:454    .text:0000000000000244 .L0 
     /tmp/ccBJBJI7.s:456    .text:0000000000000244 .L0 
     /tmp/ccBJBJI7.s:457    .text:0000000000000244 .L0 
     /tmp/ccBJBJI7.s:460    .text:000000000000024c .L0 
     /tmp/ccBJBJI7.s:461    .text:0000000000000250 .L0 
     /tmp/ccBJBJI7.s:463    .text:0000000000000254 .L0 
     /tmp/ccBJBJI7.s:464    .text:0000000000000254 .L0 
     /tmp/ccBJBJI7.s:466    .text:0000000000000258 .L0 
     /tmp/ccBJBJI7.s:468    .text:000000000000025c .L0 
     /tmp/ccBJBJI7.s:474    .text:000000000000025c _ZN6Thread4joinEv
     /tmp/ccBJBJI7.s:477    .text:000000000000025c .L0 
     /tmp/ccBJBJI7.s:479    .text:000000000000025c .L0 
     /tmp/ccBJBJI7.s:480    .text:0000000000000260 .L0 
     /tmp/ccBJBJI7.s:483    .text:0000000000000268 .L0 
     /tmp/ccBJBJI7.s:484    .text:0000000000000268 .L0 
     /tmp/ccBJBJI7.s:486    .text:000000000000026c .L0 
     /tmp/ccBJBJI7.s:488    .text:000000000000026c .L0 
     /tmp/ccBJBJI7.s:489    .text:000000000000026c .L0 
     /tmp/ccBJBJI7.s:494    .text:0000000000000278 .L0 
     /tmp/ccBJBJI7.s:495    .text:000000000000027c .L0 
     /tmp/ccBJBJI7.s:497    .text:0000000000000280 .L0 
     /tmp/ccBJBJI7.s:498    .text:0000000000000280 .L0 
     /tmp/ccBJBJI7.s:500    .text:0000000000000284 .L0 
     /tmp/ccBJBJI7.s:502    .text:0000000000000288 .L0 
     /tmp/ccBJBJI7.s:508    .text:0000000000000288 _ZN6Thread5sleepEm
     /tmp/ccBJBJI7.s:511    .text:0000000000000288 .L0 
     /tmp/ccBJBJI7.s:512    .text:0000000000000288 .L0 
     /tmp/ccBJBJI7.s:513    .text:000000000000028c .L0 
     /tmp/ccBJBJI7.s:515    .text:0000000000000290 .L0 
     /tmp/ccBJBJI7.s:517    .text:0000000000000294 .L0 
     /tmp/ccBJBJI7.s:519    .text:0000000000000294 .L0 
     /tmp/ccBJBJI7.s:520    .text:0000000000000294 .L0 
     /tmp/ccBJBJI7.s:522    .text:000000000000029c .L0 
     /tmp/ccBJBJI7.s:523    .text:000000000000029c .L0 
     /tmp/ccBJBJI7.s:525    .text:00000000000002a0 .L0 
     /tmp/ccBJBJI7.s:527    .text:00000000000002a4 .L0 
     /tmp/ccBJBJI7.s:533    .text:00000000000002a4 _ZN6Thread7runWrapEPv
     /tmp/ccBJBJI7.s:536    .text:00000000000002a4 .L0 
     /tmp/ccBJBJI7.s:538    .text:00000000000002a4 .L0 
     /tmp/ccBJBJI7.s:539    .text:00000000000002a4 .L0 
     /tmp/ccBJBJI7.s:541    .text:00000000000002a8 .L0 
     /tmp/ccBJBJI7.s:542    .text:00000000000002ac .L0 
     /tmp/ccBJBJI7.s:545    .text:00000000000002b4 .L0 
     /tmp/ccBJBJI7.s:546    .text:00000000000002b4 .L0 
     /tmp/ccBJBJI7.s:548    .text:00000000000002b8 .L0 
GAS LISTING /tmp/ccBJBJI7.s 			page 24


     /tmp/ccBJBJI7.s:550    .text:00000000000002b8 .L0 
     /tmp/ccBJBJI7.s:551    .text:00000000000002b8 .L0 
     /tmp/ccBJBJI7.s:554    .text:00000000000002c0 .L0 
     /tmp/ccBJBJI7.s:557    .text:00000000000002c4 .L0 
     /tmp/ccBJBJI7.s:558    .text:00000000000002c8 .L0 
     /tmp/ccBJBJI7.s:560    .text:00000000000002cc .L0 
     /tmp/ccBJBJI7.s:561    .text:00000000000002cc .L0 
     /tmp/ccBJBJI7.s:563    .text:00000000000002d0 .L0 
     /tmp/ccBJBJI7.s:568    .text:00000000000002d8 .L0 
     /tmp/ccBJBJI7.s:574    .text:00000000000002d8 _ZN9SemaphoreC2Ej
     /tmp/ccBJBJI7.s:577    .text:00000000000002d8 .L0 
     /tmp/ccBJBJI7.s:579    .text:00000000000002d8 .L0 
     /tmp/ccBJBJI7.s:580    .text:00000000000002dc .L0 
     /tmp/ccBJBJI7.s:583    .text:00000000000002e4 .L0 
     /tmp/ccBJBJI7.s:584    .text:00000000000002e4 .L0 
     /tmp/ccBJBJI7.s:586    .text:00000000000002e8 .L0 
     /tmp/ccBJBJI7.s:589    .text:00000000000002e8 .L0 
     /tmp/ccBJBJI7.s:592    .text:00000000000002f4 .L0 
     /tmp/ccBJBJI7.s:593    .text:00000000000002f4 .L0 
     /tmp/ccBJBJI7.s:599    .text:0000000000000300 .L0 
     /tmp/ccBJBJI7.s:600    .text:0000000000000304 .L0 
     /tmp/ccBJBJI7.s:602    .text:0000000000000308 .L0 
     /tmp/ccBJBJI7.s:603    .text:0000000000000308 .L0 
     /tmp/ccBJBJI7.s:605    .text:000000000000030c .L0 
     /tmp/ccBJBJI7.s:607    .text:0000000000000310 .L0 
     /tmp/ccBJBJI7.s:574    .text:00000000000002d8 _ZN9SemaphoreC1Ej
     /tmp/ccBJBJI7.s:615    .text:0000000000000310 _ZN9Semaphore4waitEv
     /tmp/ccBJBJI7.s:618    .text:0000000000000310 .L0 
     /tmp/ccBJBJI7.s:620    .text:0000000000000310 .L0 
     /tmp/ccBJBJI7.s:621    .text:0000000000000314 .L0 
     /tmp/ccBJBJI7.s:624    .text:000000000000031c .L0 
     /tmp/ccBJBJI7.s:625    .text:000000000000031c .L0 
     /tmp/ccBJBJI7.s:627    .text:0000000000000320 .L0 
     /tmp/ccBJBJI7.s:629    .text:0000000000000320 .L0 
     /tmp/ccBJBJI7.s:630    .text:0000000000000320 .L0 
     /tmp/ccBJBJI7.s:635    .text:000000000000032c .L0 
     /tmp/ccBJBJI7.s:636    .text:0000000000000330 .L0 
     /tmp/ccBJBJI7.s:638    .text:0000000000000334 .L0 
     /tmp/ccBJBJI7.s:639    .text:0000000000000334 .L0 
     /tmp/ccBJBJI7.s:641    .text:0000000000000338 .L0 
     /tmp/ccBJBJI7.s:643    .text:000000000000033c .L0 
     /tmp/ccBJBJI7.s:649    .text:000000000000033c _ZN9Semaphore6signalEv
     /tmp/ccBJBJI7.s:652    .text:000000000000033c .L0 
     /tmp/ccBJBJI7.s:654    .text:000000000000033c .L0 
     /tmp/ccBJBJI7.s:655    .text:0000000000000340 .L0 
     /tmp/ccBJBJI7.s:658    .text:0000000000000348 .L0 
     /tmp/ccBJBJI7.s:659    .text:0000000000000348 .L0 
     /tmp/ccBJBJI7.s:661    .text:000000000000034c .L0 
     /tmp/ccBJBJI7.s:663    .text:000000000000034c .L0 
     /tmp/ccBJBJI7.s:664    .text:000000000000034c .L0 
     /tmp/ccBJBJI7.s:669    .text:0000000000000358 .L0 
     /tmp/ccBJBJI7.s:670    .text:000000000000035c .L0 
     /tmp/ccBJBJI7.s:672    .text:0000000000000360 .L0 
     /tmp/ccBJBJI7.s:673    .text:0000000000000360 .L0 
     /tmp/ccBJBJI7.s:675    .text:0000000000000364 .L0 
     /tmp/ccBJBJI7.s:677    .text:0000000000000368 .L0 
     /tmp/ccBJBJI7.s:683    .text:0000000000000368 _ZN9Semaphore7tryWaitEv
GAS LISTING /tmp/ccBJBJI7.s 			page 25


     /tmp/ccBJBJI7.s:686    .text:0000000000000368 .L0 
     /tmp/ccBJBJI7.s:688    .text:0000000000000368 .L0 
     /tmp/ccBJBJI7.s:689    .text:000000000000036c .L0 
     /tmp/ccBJBJI7.s:692    .text:0000000000000374 .L0 
     /tmp/ccBJBJI7.s:693    .text:0000000000000374 .L0 
     /tmp/ccBJBJI7.s:695    .text:0000000000000378 .L0 
     /tmp/ccBJBJI7.s:697    .text:0000000000000378 .L0 
     /tmp/ccBJBJI7.s:698    .text:0000000000000378 .L0 
     /tmp/ccBJBJI7.s:703    .text:0000000000000384 .L0 
     /tmp/ccBJBJI7.s:704    .text:0000000000000388 .L0 
     /tmp/ccBJBJI7.s:706    .text:000000000000038c .L0 
     /tmp/ccBJBJI7.s:707    .text:000000000000038c .L0 
     /tmp/ccBJBJI7.s:709    .text:0000000000000390 .L0 
     /tmp/ccBJBJI7.s:711    .text:0000000000000394 .L0 
     /tmp/ccBJBJI7.s:717    .text:0000000000000394 _ZN9Semaphore9timedWaitEm
     /tmp/ccBJBJI7.s:720    .text:0000000000000394 .L0 
     /tmp/ccBJBJI7.s:722    .text:0000000000000394 .L0 
     /tmp/ccBJBJI7.s:723    .text:0000000000000398 .L0 
     /tmp/ccBJBJI7.s:726    .text:00000000000003a0 .L0 
     /tmp/ccBJBJI7.s:727    .text:00000000000003a0 .L0 
     /tmp/ccBJBJI7.s:729    .text:00000000000003a4 .L0 
     /tmp/ccBJBJI7.s:731    .text:00000000000003a4 .L0 
     /tmp/ccBJBJI7.s:732    .text:00000000000003a4 .L0 
     /tmp/ccBJBJI7.s:737    .text:00000000000003b0 .L0 
     /tmp/ccBJBJI7.s:738    .text:00000000000003b4 .L0 
     /tmp/ccBJBJI7.s:740    .text:00000000000003b8 .L0 
     /tmp/ccBJBJI7.s:741    .text:00000000000003b8 .L0 
     /tmp/ccBJBJI7.s:743    .text:00000000000003bc .L0 
     /tmp/ccBJBJI7.s:745    .text:00000000000003c0 .L0 
     /tmp/ccBJBJI7.s:751    .text:00000000000003c0 _ZN7Console4getcEv
     /tmp/ccBJBJI7.s:754    .text:00000000000003c0 .L0 
     /tmp/ccBJBJI7.s:755    .text:00000000000003c0 .L0 
     /tmp/ccBJBJI7.s:756    .text:00000000000003c4 .L0 
     /tmp/ccBJBJI7.s:759    .text:00000000000003cc .L0 
     /tmp/ccBJBJI7.s:760    .text:00000000000003cc .L0 
     /tmp/ccBJBJI7.s:762    .text:00000000000003d0 .L0 
     /tmp/ccBJBJI7.s:764    .text:00000000000003d0 .L0 
     /tmp/ccBJBJI7.s:765    .text:00000000000003d0 .L0 
     /tmp/ccBJBJI7.s:768    .text:00000000000003d8 .L0 
     /tmp/ccBJBJI7.s:769    .text:00000000000003dc .L0 
     /tmp/ccBJBJI7.s:771    .text:00000000000003e0 .L0 
     /tmp/ccBJBJI7.s:772    .text:00000000000003e0 .L0 
     /tmp/ccBJBJI7.s:774    .text:00000000000003e4 .L0 
     /tmp/ccBJBJI7.s:776    .text:00000000000003e8 .L0 
     /tmp/ccBJBJI7.s:782    .text:00000000000003e8 _ZN7Console4putcEc
     /tmp/ccBJBJI7.s:785    .text:00000000000003e8 .L0 
     /tmp/ccBJBJI7.s:787    .text:00000000000003e8 .L0 
     /tmp/ccBJBJI7.s:788    .text:00000000000003ec .L0 
     /tmp/ccBJBJI7.s:791    .text:00000000000003f4 .L0 
     /tmp/ccBJBJI7.s:792    .text:00000000000003f4 .L0 
     /tmp/ccBJBJI7.s:794    .text:00000000000003f8 .L0 
     /tmp/ccBJBJI7.s:796    .text:00000000000003f8 .L0 
     /tmp/ccBJBJI7.s:797    .text:00000000000003f8 .L0 
     /tmp/ccBJBJI7.s:800    .text:0000000000000400 .L0 
     /tmp/ccBJBJI7.s:801    .text:0000000000000404 .L0 
     /tmp/ccBJBJI7.s:803    .text:0000000000000408 .L0 
     /tmp/ccBJBJI7.s:804    .text:0000000000000408 .L0 
GAS LISTING /tmp/ccBJBJI7.s 			page 26


     /tmp/ccBJBJI7.s:806    .text:000000000000040c .L0 
     /tmp/ccBJBJI7.s:808    .text:0000000000000410 .L0 
     /tmp/ccBJBJI7.s:32     .text._ZN6Thread3runEv:0000000000000018 .L0 
     /tmp/ccBJBJI7.s:839    .text:0000000000000410 .L0 
     /tmp/ccBJBJI7.s:56     .text:0000000000000014 .L0 
     /tmp/ccBJBJI7.s:164    .text:00000000000000a4 .L0 
     /tmp/ccBJBJI7.s:254    .text:0000000000000124 .L0 
     /tmp/ccBJBJI7.s:308    .text:0000000000000170 .L0 
     /tmp/ccBJBJI7.s:372    .text:00000000000001c8 .L0 
     /tmp/ccBJBJI7.s:589    .text:00000000000002e8 .L0 
     /tmp/ccBJBJI7.s:79     .text:0000000000000040 .L3
     /tmp/ccBJBJI7.s:566    .text:00000000000002d4 .L31
     /tmp/ccBJBJI7.s:2750   .debug_abbrev:0000000000000000 .Ldebug_abbrev0
     /tmp/ccBJBJI7.s:4692   .debug_str:000000000000095d .LASF185
     /tmp/ccBJBJI7.s:4504   .debug_str:000000000000041b .LASF186
     /tmp/ccBJBJI7.s:4644   .debug_str:0000000000000811 .LASF187
     /tmp/ccBJBJI7.s:4358   .debug_ranges:0000000000000000 .Ldebug_ranges0
     /tmp/ccBJBJI7.s:4366   .debug_line:0000000000000000 .Ldebug_line0
     /tmp/ccBJBJI7.s:4496   .debug_str:00000000000003ec .LASF0
     /tmp/ccBJBJI7.s:4522   .debug_str:00000000000004bd .LASF1
     /tmp/ccBJBJI7.s:4618   .debug_str:0000000000000757 .LASF2
     /tmp/ccBJBJI7.s:4630   .debug_str:00000000000007c7 .LASF4
     /tmp/ccBJBJI7.s:4506   .debug_str:000000000000042f .LASF3
     /tmp/ccBJBJI7.s:4386   .debug_str:000000000000008e .LASF5
     /tmp/ccBJBJI7.s:4590   .debug_str:00000000000006a6 .LASF6
     /tmp/ccBJBJI7.s:4580   .debug_str:0000000000000660 .LASF7
     /tmp/ccBJBJI7.s:4514   .debug_str:0000000000000490 .LASF8
     /tmp/ccBJBJI7.s:4474   .debug_str:000000000000032b .LASF9
     /tmp/ccBJBJI7.s:4480   .debug_str:0000000000000367 .LASF10
     /tmp/ccBJBJI7.s:4424   .debug_str:00000000000001c4 .LASF11
     /tmp/ccBJBJI7.s:4466   .debug_str:00000000000002fc .LASF12
     /tmp/ccBJBJI7.s:4436   .debug_str:0000000000000224 .LASF13
     /tmp/ccBJBJI7.s:4422   .debug_str:00000000000001b4 .LASF14
     /tmp/ccBJBJI7.s:4662   .debug_str:00000000000008aa .LASF15
     /tmp/ccBJBJI7.s:4458   .debug_str:00000000000002ab .LASF16
     /tmp/ccBJBJI7.s:4650   .debug_str:0000000000000849 .LASF17
     /tmp/ccBJBJI7.s:4728   .debug_str:0000000000000b2a .LASF18
     /tmp/ccBJBJI7.s:4674   .debug_str:00000000000008ec .LASF103
     /tmp/ccBJBJI7.s:4404   .debug_str:0000000000000121 .LASF19
     /tmp/ccBJBJI7.s:4406   .debug_str:000000000000012f .LASF20
     /tmp/ccBJBJI7.s:4408   .debug_str:000000000000013d .LASF21
     /tmp/ccBJBJI7.s:4634   .debug_str:00000000000007d3 .LASF22
     /tmp/ccBJBJI7.s:4632   .debug_str:00000000000007ce .LASF23
     /tmp/ccBJBJI7.s:4382   .debug_str:0000000000000078 .LASF25
     /tmp/ccBJBJI7.s:4676   .debug_str:00000000000008f4 .LASF27
     /tmp/ccBJBJI7.s:4558   .debug_str:00000000000005b6 .LASF29
     /tmp/ccBJBJI7.s:4410   .debug_str:000000000000014b .LASF24
     /tmp/ccBJBJI7.s:4706   .debug_str:0000000000000a81 .LASF26
     /tmp/ccBJBJI7.s:4622   .debug_str:0000000000000774 .LASF28
     /tmp/ccBJBJI7.s:4418   .debug_str:0000000000000190 .LASF30
     /tmp/ccBJBJI7.s:4680   .debug_str:0000000000000913 .LASF31
     /tmp/ccBJBJI7.s:4464   .debug_str:00000000000002e6 .LASF32
     /tmp/ccBJBJI7.s:4478   .debug_str:000000000000035c .LASF41
     /tmp/ccBJBJI7.s:4646   .debug_str:000000000000082a .LASF43
     /tmp/ccBJBJI7.s:4370   .debug_str:000000000000000e .LASF45
     /tmp/ccBJBJI7.s:4684   .debug_str:0000000000000923 .LASF47
     /tmp/ccBJBJI7.s:4442   .debug_str:000000000000024a .LASF33
GAS LISTING /tmp/ccBJBJI7.s 			page 27


     /tmp/ccBJBJI7.s:4738   .debug_str:0000000000000b69 .LASF34
     /tmp/ccBJBJI7.s:4528   .debug_str:00000000000004e9 .LASF35
     /tmp/ccBJBJI7.s:4716   .debug_str:0000000000000ac7 .LASF36
     /tmp/ccBJBJI7.s:4444   .debug_str:0000000000000251 .LASF37
     /tmp/ccBJBJI7.s:4628   .debug_str:00000000000007af .LASF38
     /tmp/ccBJBJI7.s:4492   .debug_str:00000000000003cf .LASF69
     /tmp/ccBJBJI7.s:4660   .debug_str:000000000000089d .LASF39
     /tmp/ccBJBJI7.s:4718   .debug_str:0000000000000ae0 .LASF40
     /tmp/ccBJBJI7.s:4572   .debug_str:0000000000000629 .LASF188
     /tmp/ccBJBJI7.s:4760   .debug_str:0000000000000bf6 .LASF42
     /tmp/ccBJBJI7.s:4586   .debug_str:0000000000000684 .LASF44
     /tmp/ccBJBJI7.s:4446   .debug_str:000000000000025e .LASF51
     /tmp/ccBJBJI7.s:4432   .debug_str:00000000000001ff .LASF53
     /tmp/ccBJBJI7.s:4686   .debug_str:000000000000093b .LASF46
     /tmp/ccBJBJI7.s:4468   .debug_str:000000000000030b .LASF48
     /tmp/ccBJBJI7.s:4438   .debug_str:0000000000000234 .LASF49
     /tmp/ccBJBJI7.s:4654   .debug_str:0000000000000872 .LASF50
     /tmp/ccBJBJI7.s:4524   .debug_str:00000000000004d0 .LASF52
     /tmp/ccBJBJI7.s:4698   .debug_str:0000000000000a48 .LASF54
     /tmp/ccBJBJI7.s:4690   .debug_str:0000000000000955 .LASF55
     /tmp/ccBJBJI7.s:4734   .debug_str:0000000000000b5b .LASF56
     /tmp/ccBJBJI7.s:4534   .debug_str:000000000000051e .LASF57
     /tmp/ccBJBJI7.s:4736   .debug_str:0000000000000b61 .LASF58
     /tmp/ccBJBJI7.s:4616   .debug_str:0000000000000745 .LASF59
     /tmp/ccBJBJI7.s:4694   .debug_str:0000000000000a21 .LASF189
     /tmp/ccBJBJI7.s:4372   .debug_str:0000000000000019 .LASF60
     /tmp/ccBJBJI7.s:4752   .debug_str:0000000000000bc4 .LASF61
     /tmp/ccBJBJI7.s:4704   .debug_str:0000000000000a79 .LASF62
     /tmp/ccBJBJI7.s:4702   .debug_str:0000000000000a6f .LASF63
     /tmp/ccBJBJI7.s:4648   .debug_str:0000000000000840 .LASF64
     /tmp/ccBJBJI7.s:4568   .debug_str:000000000000060f .LASF65
     /tmp/ccBJBJI7.s:4758   .debug_str:0000000000000bf1 .LASF66
     /tmp/ccBJBJI7.s:4742   .debug_str:0000000000000b8e .LASF67
     /tmp/ccBJBJI7.s:4582   .debug_str:0000000000000673 .LASF68
     /tmp/ccBJBJI7.s:4482   .debug_str:0000000000000375 .LASF70
     /tmp/ccBJBJI7.s:4412   .debug_str:0000000000000157 .LASF71
     /tmp/ccBJBJI7.s:4414   .debug_str:0000000000000165 .LASF190
     /tmp/ccBJBJI7.s:4530   .debug_str:00000000000004f6 .LASF191
     /tmp/ccBJBJI7.s:4440   .debug_str:000000000000023c .LASF76
     /tmp/ccBJBJI7.s:4380   .debug_str:0000000000000050 .LASF78
     /tmp/ccBJBJI7.s:4452   .debug_str:000000000000027f .LASF192
     /tmp/ccBJBJI7.s:4746   .debug_str:0000000000000ba4 .LASF72
     /tmp/ccBJBJI7.s:4544   .debug_str:0000000000000559 .LASF73
     /tmp/ccBJBJI7.s:4502   .debug_str:0000000000000416 .LASF74
     /tmp/ccBJBJI7.s:4740   .debug_str:0000000000000b7b .LASF75
     /tmp/ccBJBJI7.s:4550   .debug_str:000000000000058d .LASF77
     /tmp/ccBJBJI7.s:4450   .debug_str:000000000000026c .LASF79
     /tmp/ccBJBJI7.s:4682   .debug_str:000000000000091e .LASF80
     /tmp/ccBJBJI7.s:4472   .debug_str:0000000000000321 .LASF81
     /tmp/ccBJBJI7.s:4678   .debug_str:00000000000008ff .LASF82
     /tmp/ccBJBJI7.s:4750   .debug_str:0000000000000bb0 .LASF193
     /tmp/ccBJBJI7.s:4488   .debug_str:00000000000003aa .LASF194
     /tmp/ccBJBJI7.s:4730   .debug_str:0000000000000b33 .LASF83
     /tmp/ccBJBJI7.s:4710   .debug_str:0000000000000aa5 .LASF195
     /tmp/ccBJBJI7.s:4656   .debug_str:0000000000000884 .LASF84
     /tmp/ccBJBJI7.s:4560   .debug_str:00000000000005cd .LASF85
     /tmp/ccBJBJI7.s:4556   .debug_str:00000000000005b1 .LASF86
GAS LISTING /tmp/ccBJBJI7.s 			page 28


     /tmp/ccBJBJI7.s:4652   .debug_str:000000000000085f .LASF87
     /tmp/ccBJBJI7.s:4456   .debug_str:0000000000000294 .LASF88
     /tmp/ccBJBJI7.s:4638   .debug_str:00000000000007f6 .LASF113
     /tmp/ccBJBJI7.s:4608   .debug_str:000000000000070e .LASF123
     /tmp/ccBJBJI7.s:4516   .debug_str:00000000000004a3 .LASF89
     /tmp/ccBJBJI7.s:4416   .debug_str:0000000000000173 .LASF90
     /tmp/ccBJBJI7.s:4536   .debug_str:000000000000052e .LASF91
     /tmp/ccBJBJI7.s:4462   .debug_str:00000000000002ca .LASF92
     /tmp/ccBJBJI7.s:4578   .debug_str:0000000000000654 .LASF93
     /tmp/ccBJBJI7.s:4732   .debug_str:0000000000000b3d .LASF94
     /tmp/ccBJBJI7.s:4770   .debug_str:0000000000000c3f .LASF95
     /tmp/ccBJBJI7.s:4548   .debug_str:0000000000000572 .LASF96
     /tmp/ccBJBJI7.s:4500   .debug_str:000000000000040b .LASF97
     /tmp/ccBJBJI7.s:4512   .debug_str:0000000000000473 .LASF98
     /tmp/ccBJBJI7.s:4600   .debug_str:00000000000006e3 .LASF99
     /tmp/ccBJBJI7.s:4378   .debug_str:0000000000000036 .LASF100
     /tmp/ccBJBJI7.s:4376   .debug_str:000000000000002e .LASF101
     /tmp/ccBJBJI7.s:4762   .debug_str:0000000000000c01 .LASF102
     /tmp/ccBJBJI7.s:4604   .debug_str:00000000000006fc .LASF104
     /tmp/ccBJBJI7.s:4520   .debug_str:00000000000004b8 .LASF105
     /tmp/ccBJBJI7.s:4426   .debug_str:00000000000001d3 .LASF106
     /tmp/ccBJBJI7.s:4576   .debug_str:0000000000000644 .LASF107
     /tmp/ccBJBJI7.s:4398   .debug_str:00000000000000f9 .LASF108
     /tmp/ccBJBJI7.s:4490   .debug_str:00000000000003c2 .LASF109
     /tmp/ccBJBJI7.s:4610   .debug_str:0000000000000725 .LASF110
     /tmp/ccBJBJI7.s:4454   .debug_str:000000000000028a .LASF111
     /tmp/ccBJBJI7.s:4486   .debug_str:000000000000038f .LASF112
     /tmp/ccBJBJI7.s:4564   .debug_str:00000000000005de .LASF114
     /tmp/ccBJBJI7.s:4670   .debug_str:00000000000008db .LASF115
     /tmp/ccBJBJI7.s:4772   .debug_str:0000000000000c49 .LASF116
     /tmp/ccBJBJI7.s:4724   .debug_str:0000000000000b1b .LASF117
     /tmp/ccBJBJI7.s:4394   .debug_str:00000000000000d3 .LASF118
     /tmp/ccBJBJI7.s:4538   .debug_str:0000000000000536 .LASF119
     /tmp/ccBJBJI7.s:4552   .debug_str:0000000000000592 .LASF120
     /tmp/ccBJBJI7.s:4434   .debug_str:0000000000000212 .LASF136
     /tmp/ccBJBJI7.s:4612   .debug_str:0000000000000731 .LASF138
     /tmp/ccBJBJI7.s:4756   .debug_str:0000000000000bda .LASF121
     /tmp/ccBJBJI7.s:4640   .debug_str:0000000000000800 .LASF122
     /tmp/ccBJBJI7.s:4420   .debug_str:00000000000001a5 .LASF124
     /tmp/ccBJBJI7.s:4748   .debug_str:0000000000000baa .LASF125
     /tmp/ccBJBJI7.s:4526   .debug_str:00000000000004d6 .LASF126
     /tmp/ccBJBJI7.s:4574   .debug_str:000000000000062e .LASF127
     /tmp/ccBJBJI7.s:4396   .debug_str:00000000000000f3 .LASF128
     /tmp/ccBJBJI7.s:4696   .debug_str:0000000000000a35 .LASF129
     /tmp/ccBJBJI7.s:4592   .debug_str:00000000000006ad .LASF130
     /tmp/ccBJBJI7.s:4624   .debug_str:000000000000077e .LASF131
     /tmp/ccBJBJI7.s:4540   .debug_str:000000000000053b .LASF132
     /tmp/ccBJBJI7.s:4768   .debug_str:0000000000000c30 .LASF133
     /tmp/ccBJBJI7.s:4744   .debug_str:0000000000000b93 .LASF196
     /tmp/ccBJBJI7.s:4460   .debug_str:00000000000002c1 .LASF134
     /tmp/ccBJBJI7.s:4766   .debug_str:0000000000000c28 .LASF197
     /tmp/ccBJBJI7.s:4626   .debug_str:0000000000000799 .LASF198
     /tmp/ccBJBJI7.s:4712   .debug_str:0000000000000aaa .LASF135
     /tmp/ccBJBJI7.s:4688   .debug_str:0000000000000940 .LASF137
     /tmp/ccBJBJI7.s:4754   .debug_str:0000000000000bca .LASF139
     /tmp/ccBJBJI7.s:4720   .debug_str:0000000000000b00 .LASF140
     /tmp/ccBJBJI7.s:4596   .debug_str:00000000000006ce .LASF141
GAS LISTING /tmp/ccBJBJI7.s 			page 29


     /tmp/ccBJBJI7.s:4636   .debug_str:00000000000007e4 .LASF142
     /tmp/ccBJBJI7.s:4448   .debug_str:0000000000000267 .LASF143
     /tmp/ccBJBJI7.s:4430   .debug_str:00000000000001ea .LASF144
     /tmp/ccBJBJI7.s:4668   .debug_str:00000000000008d4 .LASF145
     /tmp/ccBJBJI7.s:4388   .debug_str:0000000000000095 .LASF146
     /tmp/ccBJBJI7.s:4400   .debug_str:0000000000000112 .LASF147
     /tmp/ccBJBJI7.s:4510   .debug_str:0000000000000459 .LASF148
     /tmp/ccBJBJI7.s:4672   .debug_str:00000000000008e4 .LASF149
     /tmp/ccBJBJI7.s:4508   .debug_str:0000000000000441 .LASF150
     /tmp/ccBJBJI7.s:4494   .debug_str:00000000000003dc .LASF199
     /tmp/ccBJBJI7.s:783    .text:00000000000003e8 .LFB58
     /tmp/ccBJBJI7.s:809    .text:0000000000000410 .LFE58
     /tmp/ccBJBJI7.s:4048   .debug_loc:0000000000000000 .LLST19
     /tmp/ccBJBJI7.s:798    .text:0000000000000400 .LVL54
     /tmp/ccBJBJI7.s:752    .text:00000000000003c0 .LFB57
     /tmp/ccBJBJI7.s:777    .text:00000000000003e8 .LFE57
     /tmp/ccBJBJI7.s:766    .text:00000000000003d8 .LVL52
     /tmp/ccBJBJI7.s:718    .text:0000000000000394 .LFB56
     /tmp/ccBJBJI7.s:746    .text:00000000000003c0 .LFE56
     /tmp/ccBJBJI7.s:4470   .debug_str:000000000000031c .LASF152
     /tmp/ccBJBJI7.s:4062   .debug_loc:0000000000000039 .LLST17
     /tmp/ccBJBJI7.s:4584   .debug_str:000000000000067f .LASF151
     /tmp/ccBJBJI7.s:4076   .debug_loc:0000000000000072 .LLST18
     /tmp/ccBJBJI7.s:735    .text:00000000000003b0 .LVL51
     /tmp/ccBJBJI7.s:684    .text:0000000000000368 .LFB55
     /tmp/ccBJBJI7.s:712    .text:0000000000000394 .LFE55
     /tmp/ccBJBJI7.s:4090   .debug_loc:00000000000000ab .LLST16
     /tmp/ccBJBJI7.s:701    .text:0000000000000384 .LVL48
     /tmp/ccBJBJI7.s:650    .text:000000000000033c .LFB54
     /tmp/ccBJBJI7.s:678    .text:0000000000000368 .LFE54
     /tmp/ccBJBJI7.s:4104   .debug_loc:00000000000000e4 .LLST15
     /tmp/ccBJBJI7.s:667    .text:0000000000000358 .LVL45
     /tmp/ccBJBJI7.s:616    .text:0000000000000310 .LFB53
     /tmp/ccBJBJI7.s:644    .text:000000000000033c .LFE53
     /tmp/ccBJBJI7.s:4118   .debug_loc:000000000000011d .LLST14
     /tmp/ccBJBJI7.s:633    .text:000000000000032c .LVL42
     /tmp/ccBJBJI7.s:4384   .debug_str:0000000000000084 .LASF153
     /tmp/ccBJBJI7.s:4498   .debug_str:00000000000003f9 .LASF154
     /tmp/ccBJBJI7.s:198    .text:00000000000000cc .LFB52
     /tmp/ccBJBJI7.s:231    .text:000000000000010c .LFE52
     /tmp/ccBJBJI7.s:4132   .debug_loc:0000000000000156 .LLST4
     /tmp/ccBJBJI7.s:215    .text:00000000000000ec .LVL14
     /tmp/ccBJBJI7.s:218    .text:00000000000000f8 .LVL15
     /tmp/ccBJBJI7.s:4392   .debug_str:00000000000000c1 .LASF155
     /tmp/ccBJBJI7.s:148    .text:0000000000000094 .LFB50
     /tmp/ccBJBJI7.s:183    .text:00000000000000cc .LFE50
     /tmp/ccBJBJI7.s:4150   .debug_loc:00000000000001a2 .LLST3
     /tmp/ccBJBJI7.s:171    .text:00000000000000bc .LVL12
     /tmp/ccBJBJI7.s:4402   .debug_str:000000000000011c .LASF161
     /tmp/ccBJBJI7.s:4428   .debug_str:00000000000001d8 .LASF156
     /tmp/ccBJBJI7.s:575    .text:00000000000002d8 .LFB47
     /tmp/ccBJBJI7.s:608    .text:0000000000000310 .LFE47
     /tmp/ccBJBJI7.s:4164   .debug_loc:00000000000001db .LLST12
     /tmp/ccBJBJI7.s:4184   .debug_loc:0000000000000229 .LLST13
     /tmp/ccBJBJI7.s:596    .text:0000000000000300 .LVL39
     /tmp/ccBJBJI7.s:534    .text:00000000000002a4 .LFB45
     /tmp/ccBJBJI7.s:569    .text:00000000000002d8 .LFE45
GAS LISTING /tmp/ccBJBJI7.s 			page 30


     /tmp/ccBJBJI7.s:4614   .debug_str:000000000000073e .LASF157
     /tmp/ccBJBJI7.s:4198   .debug_loc:0000000000000262 .LLST11
     /tmp/ccBJBJI7.s:555    .text:00000000000002c4 .LVL35
     /tmp/ccBJBJI7.s:509    .text:0000000000000288 .LFB44
     /tmp/ccBJBJI7.s:528    .text:00000000000002a4 .LFE44
     /tmp/ccBJBJI7.s:475    .text:000000000000025c .LFB43
     /tmp/ccBJBJI7.s:503    .text:0000000000000288 .LFE43
     /tmp/ccBJBJI7.s:4216   .debug_loc:00000000000002ae .LLST10
     /tmp/ccBJBJI7.s:492    .text:0000000000000278 .LVL33
     /tmp/ccBJBJI7.s:444    .text:0000000000000234 .LFB42
     /tmp/ccBJBJI7.s:469    .text:000000000000025c .LFE42
     /tmp/ccBJBJI7.s:458    .text:000000000000024c .LVL30
     /tmp/ccBJBJI7.s:408    .text:0000000000000204 .LFB41
     /tmp/ccBJBJI7.s:438    .text:0000000000000234 .LFE41
     /tmp/ccBJBJI7.s:4230   .debug_loc:00000000000002e7 .LLST9
     /tmp/ccBJBJI7.s:425    .text:0000000000000220 .LVL29
     /tmp/ccBJBJI7.s:4532   .debug_str:000000000000050f .LASF158
     /tmp/ccBJBJI7.s:109    .text:0000000000000054 .LFB40
     /tmp/ccBJBJI7.s:142    .text:0000000000000094 .LFE40
     /tmp/ccBJBJI7.s:4244   .debug_loc:0000000000000320 .LLST2
     /tmp/ccBJBJI7.s:126    .text:0000000000000074 .LVL7
     /tmp/ccBJBJI7.s:129    .text:0000000000000080 .LVL8
     /tmp/ccBJBJI7.s:4594   .debug_str:00000000000006bf .LASF159
     /tmp/ccBJBJI7.s:37     .text:0000000000000000 .LFB38
     /tmp/ccBJBJI7.s:93     .text:0000000000000054 .LFE38
     /tmp/ccBJBJI7.s:4262   .debug_loc:000000000000036c .LLST0
     /tmp/ccBJBJI7.s:64     .text:0000000000000028 .LBB7
     /tmp/ccBJBJI7.s:74     .text:0000000000000034 .LBE7
     /tmp/ccBJBJI7.s:4276   .debug_loc:00000000000003a5 .LLST1
     /tmp/ccBJBJI7.s:72     .text:0000000000000034 .LVL4
     /tmp/ccBJBJI7.s:78     .text:0000000000000040 .LVL5
     /tmp/ccBJBJI7.s:4620   .debug_str:0000000000000765 .LASF160
     /tmp/ccBJBJI7.s:355    .text:00000000000001b0 .LFB35
     /tmp/ccBJBJI7.s:400    .text:0000000000000204 .LFE35
     /tmp/ccBJBJI7.s:4283   .debug_loc:00000000000003c8 .LLST8
     /tmp/ccBJBJI7.s:381    .text:00000000000001e8 .LVL25
     /tmp/ccBJBJI7.s:324    .text:0000000000000188 .LFB33
     /tmp/ccBJBJI7.s:349    .text:00000000000001b0 .LFE33
     /tmp/ccBJBJI7.s:338    .text:00000000000001a0 .LVL22
     /tmp/ccBJBJI7.s:294    .text:0000000000000160 .LFB32
     /tmp/ccBJBJI7.s:318    .text:0000000000000188 .LFE32
     /tmp/ccBJBJI7.s:4700   .debug_str:0000000000000a58 .LASF162
     /tmp/ccBJBJI7.s:237    .text:000000000000010c .LFB30
     /tmp/ccBJBJI7.s:286    .text:0000000000000160 .LFE30
     /tmp/ccBJBJI7.s:4299   .debug_loc:0000000000000412 .LLST5
     /tmp/ccBJBJI7.s:4315   .debug_loc:000000000000045c .LLST6
     /tmp/ccBJBJI7.s:4329   .debug_loc:0000000000000495 .LLST7
     /tmp/ccBJBJI7.s:267    .text:0000000000000144 .LVL19
     /tmp/ccBJBJI7.s:4518   .debug_str:00000000000004ac .LASF200
     /tmp/ccBJBJI7.s:11     .text._ZN6Thread3runEv:0000000000000000 .LFB0
     /tmp/ccBJBJI7.s:30     .text._ZN6Thread3runEv:0000000000000018 .LFE0
     /tmp/ccBJBJI7.s:4664   .debug_str:00000000000008b6 .LASF163
     /tmp/ccBJBJI7.s:4722   .debug_str:0000000000000b12 .LASF164
     /tmp/ccBJBJI7.s:4554   .debug_str:0000000000000599 .LASF165
     /tmp/ccBJBJI7.s:4368   .debug_str:0000000000000000 .LASF166
     /tmp/ccBJBJI7.s:4666   .debug_str:00000000000008bf .LASF167
     /tmp/ccBJBJI7.s:4588   .debug_str:000000000000069a .LASF168
GAS LISTING /tmp/ccBJBJI7.s 			page 31


     /tmp/ccBJBJI7.s:4658   .debug_str:0000000000000889 .LASF169
     /tmp/ccBJBJI7.s:4484   .debug_str:0000000000000384 .LASF170
     /tmp/ccBJBJI7.s:4546   .debug_str:0000000000000561 .LASF171
     /tmp/ccBJBJI7.s:4642   .debug_str:0000000000000808 .LASF172
     /tmp/ccBJBJI7.s:4726   .debug_str:0000000000000b23 .LASF201
     /tmp/ccBJBJI7.s:4374   .debug_str:000000000000001e .LASF202
     /tmp/ccBJBJI7.s:4570   .debug_str:0000000000000617 .LASF173
     /tmp/ccBJBJI7.s:4598   .debug_str:00000000000006d9 .LASF174
     /tmp/ccBJBJI7.s:4714   .debug_str:0000000000000ab4 .LASF175
     /tmp/ccBJBJI7.s:4606   .debug_str:0000000000000705 .LASF176
     /tmp/ccBJBJI7.s:4566   .debug_str:00000000000005fa .LASF177
     /tmp/ccBJBJI7.s:4562   .debug_str:00000000000005d2 .LASF178
     /tmp/ccBJBJI7.s:4390   .debug_str:00000000000000ac .LASF179
     /tmp/ccBJBJI7.s:4602   .debug_str:00000000000006ec .LASF180
     /tmp/ccBJBJI7.s:4476   .debug_str:000000000000033b .LASF181
     /tmp/ccBJBJI7.s:4764   .debug_str:0000000000000c1a .LASF182
     /tmp/ccBJBJI7.s:4708   .debug_str:0000000000000a98 .LASF183
     /tmp/ccBJBJI7.s:4542   .debug_str:0000000000000550 .LASF184
     /tmp/ccBJBJI7.s:786    .text:00000000000003e8 .LVL53
     /tmp/ccBJBJI7.s:721    .text:0000000000000394 .LVL49
     /tmp/ccBJBJI7.s:733    .text:00000000000003a8 .LVL50
     /tmp/ccBJBJI7.s:687    .text:0000000000000368 .LVL46
     /tmp/ccBJBJI7.s:699    .text:000000000000037c .LVL47
     /tmp/ccBJBJI7.s:653    .text:000000000000033c .LVL43
     /tmp/ccBJBJI7.s:665    .text:0000000000000350 .LVL44
     /tmp/ccBJBJI7.s:619    .text:0000000000000310 .LVL40
     /tmp/ccBJBJI7.s:631    .text:0000000000000324 .LVL41
     /tmp/ccBJBJI7.s:201    .text:00000000000000cc .LVL13
     /tmp/ccBJBJI7.s:226    .text:0000000000000104 .LVL16
     /tmp/ccBJBJI7.s:153    .text:0000000000000094 .LVL10
     /tmp/ccBJBJI7.s:169    .text:00000000000000b4 .LVL11
     /tmp/ccBJBJI7.s:578    .text:00000000000002d8 .LVL37
     /tmp/ccBJBJI7.s:594    .text:00000000000002f8 .LVL38
     /tmp/ccBJBJI7.s:537    .text:00000000000002a4 .LVL34
     /tmp/ccBJBJI7.s:565    .text:00000000000002d4 .LVL36
     /tmp/ccBJBJI7.s:478    .text:000000000000025c .LVL31
     /tmp/ccBJBJI7.s:490    .text:0000000000000270 .LVL32
     /tmp/ccBJBJI7.s:411    .text:0000000000000204 .LVL27
     /tmp/ccBJBJI7.s:423    .text:0000000000000218 .LVL28
     /tmp/ccBJBJI7.s:112    .text:0000000000000054 .LVL6
     /tmp/ccBJBJI7.s:137    .text:000000000000008c .LVL9
     /tmp/ccBJBJI7.s:43     .text:0000000000000000 .LVL1
     /tmp/ccBJBJI7.s:70     .text:000000000000002c .LVL3
     /tmp/ccBJBJI7.s:63     .text:0000000000000028 .LVL2
     /tmp/ccBJBJI7.s:358    .text:00000000000001b0 .LVL23
     /tmp/ccBJBJI7.s:379    .text:00000000000001e0 .LVL24
     /tmp/ccBJBJI7.s:395    .text:00000000000001fc .LVL26
     /tmp/ccBJBJI7.s:240    .text:000000000000010c .LVL17
     /tmp/ccBJBJI7.s:265    .text:000000000000013c .LVL18
     /tmp/ccBJBJI7.s:281    .text:0000000000000158 .LVL20
     /tmp/ccBJBJI7.s:840    .debug_info:0000000000000000 .Ldebug_info0
     /tmp/ccBJBJI7.s:5      .text:0000000000000000 .Ltext0
     /tmp/ccBJBJI7.s:833    .text:0000000000000410 .Letext0
     /tmp/ccBJBJI7.s:96     .gcc_except_table:0000000000000000 .LLSDA38
     /tmp/ccBJBJI7.s:185    .gcc_except_table:0000000000000004 .LLSDA50

UNDEFINED SYMBOLS
GAS LISTING /tmp/ccBJBJI7.s 			page 32


_ZN15MemoryAllocator7memfreeEPv
_ZdlPv
__gxx_personality_v0
_Z9sem_closeP3Sem
_Z13thread_createPP3TCBPFvPvES2_
_ZN3TCB7runningE
_Z8_barrierv
_ZN9Scheduler3putEP3TCB
_Z15thread_dispatchv
_Z11thread_joinP3TCB
_Z8sem_openPP3Semj
_Z8sem_waitP3Sem
_Z10sem_signalP3Sem
_Z11sem_trywaitP3Sem
_Z13sem_timedwaitP3Semm
_Z4getcv
_Z4putcc
