GAS LISTING /tmp/ccDGSsfN.s 			page 1


   1              		.file	"tcb.cpp"
   2              		.option pic
   3              		.option norelax
   4              		.text
   5              	.Ltext0:
   6              		.align	2
   8              	_Z41__static_initialization_and_destruction_0ii:
   9              	.LFB62:
  10              		.file 1 "src/tcb.cpp"
   1:src/tcb.cpp   **** //
   2:src/tcb.cpp   **** // Created by os on 5/8/24.
   3:src/tcb.cpp   **** //
   4:src/tcb.cpp   **** 
   5:src/tcb.cpp   **** #include "../h/tcb.hpp"
   6:src/tcb.cpp   **** #include "../h/riscv.hpp"
   7:src/tcb.cpp   **** #include "../h/syscall_c.hpp"
   8:src/tcb.cpp   **** #include "../tests/printing.hpp"
   9:src/tcb.cpp   **** 
  10:src/tcb.cpp   **** TCB *TCB::running = nullptr;
  11:src/tcb.cpp   **** bool TCB::readyToPrintA = false;
  12:src/tcb.cpp   **** bool TCB::readyToPrintB = false;
  13:src/tcb.cpp   **** bool TCB::readyToPrintC = false;
  14:src/tcb.cpp   **** int TCB::timeSliceCounter = 0;
  15:src/tcb.cpp   **** int TCB::ID = 0;
  16:src/tcb.cpp   **** 
  17:src/tcb.cpp   **** int TCB::blockedNumber = 0;
  18:src/tcb.cpp   **** List<TCB> TCB::blockedBarrier;
  19:src/tcb.cpp   **** 
  20:src/tcb.cpp   **** void TCB::barrier(){
  21:src/tcb.cpp   ****     if(blockedNumber  < ID -3){
  22:src/tcb.cpp   ****         blockedBarrier.addLast(TCB::running);
  23:src/tcb.cpp   ****         blockedNumber++;
  24:src/tcb.cpp   ****         TCB::running->setBlocked(true);
  25:src/tcb.cpp   ****     } else {
  26:src/tcb.cpp   ****         while (blockedBarrier.hasElem()) {
  27:src/tcb.cpp   ****             TCB *t = blockedBarrier.removeFirst();
  28:src/tcb.cpp   ****             t->setBlocked(false);
  29:src/tcb.cpp   ****             blockedNumber--;
  30:src/tcb.cpp   ****             Scheduler::put(t);
  31:src/tcb.cpp   ****         }
  32:src/tcb.cpp   ****     }
  33:src/tcb.cpp   ****     while(running->blocked) thread_dispatch();
  34:src/tcb.cpp   **** }
  35:src/tcb.cpp   **** 
  36:src/tcb.cpp   **** void TCB::yield(){
  37:src/tcb.cpp   **** 
  38:src/tcb.cpp   ****     uint64 code = THREAD_DISPATCH;
  39:src/tcb.cpp   ****     __asm__ volatile("mv a0, %0" : : "r"(code));
  40:src/tcb.cpp   ****     __asm__ volatile("ecall");
  41:src/tcb.cpp   **** 
  42:src/tcb.cpp   **** }
  43:src/tcb.cpp   **** 
  44:src/tcb.cpp   **** void TCB::dispatch(){
  45:src/tcb.cpp   ****     TCB *old = running;
  46:src/tcb.cpp   ****     if(!old->isFinished() && !old->isBlocked()){
  47:src/tcb.cpp   ****         Scheduler::put(old);
  48:src/tcb.cpp   ****     }
GAS LISTING /tmp/ccDGSsfN.s 			page 2


  49:src/tcb.cpp   ****     running = Scheduler::get();
  50:src/tcb.cpp   **** 
  51:src/tcb.cpp   ****     if(running->isMain()) Riscv::ms_sstatus(Riscv::SSTATUS_SPP);
  52:src/tcb.cpp   ****     else Riscv::mc_sstatus(Riscv::SSTATUS_SPP);
  53:src/tcb.cpp   ****     TCB::contextSwitch(&old->context, &running->context);
  54:src/tcb.cpp   **** }
  55:src/tcb.cpp   **** 
  56:src/tcb.cpp   **** TCB * TCB::createThread(Body body, void* arg)
  57:src/tcb.cpp   **** {
  58:src/tcb.cpp   ****     TCB* newTCB = new TCB(body, arg);
  59:src/tcb.cpp   ****     if(!newTCB->isMain())
  60:src/tcb.cpp   ****     Scheduler::put(newTCB);
  61:src/tcb.cpp   ****     return newTCB;
  62:src/tcb.cpp   **** }
  63:src/tcb.cpp   **** 
  64:src/tcb.cpp   **** void TCB::threadWrapper( ){
  65:src/tcb.cpp   ****     Riscv::popSppSpie();
  66:src/tcb.cpp   **** 
  67:src/tcb.cpp   ****   // running->body(running->arg);
  68:src/tcb.cpp   ****     if(running->isMain()){
  69:src/tcb.cpp   ****         //za main
  70:src/tcb.cpp   **** 
  71:src/tcb.cpp   ****             running->threadHandle->run();
  72:src/tcb.cpp   **** 
  73:src/tcb.cpp   ****     }
  74:src/tcb.cpp   ****     else
  75:src/tcb.cpp   ****     running->body(running->arg);
  76:src/tcb.cpp   ****     running->setFinished(true);
  77:src/tcb.cpp   ****     running->release();
  78:src/tcb.cpp   ****     TCB::yield();
  79:src/tcb.cpp   **** }
  80:src/tcb.cpp   **** 
  81:src/tcb.cpp   **** int TCB::exitThread() {
  82:src/tcb.cpp   ****     if(!running->isFinished()) {
  83:src/tcb.cpp   ****         running->setFinished(true);
  84:src/tcb.cpp   ****         TCB::dispatch();
  85:src/tcb.cpp   ****         return 0;
  86:src/tcb.cpp   ****     } else return -1;
  87:src/tcb.cpp   **** }
  88:src/tcb.cpp   **** 
  89:src/tcb.cpp   **** void TCB::join(TCB* t) {
  90:src/tcb.cpp   ****     if(!t->isFinished()) {
  91:src/tcb.cpp   ****         running->setBlocked(true);
  92:src/tcb.cpp   ****         t->joinThreads.addLast(running);
  93:src/tcb.cpp   ****     }
  94:src/tcb.cpp   **** }
  95:src/tcb.cpp   **** void TCB::release()
  96:src/tcb.cpp   **** {
  97:src/tcb.cpp   ****     while(joinThreads.hasElem()) {
  98:src/tcb.cpp   ****         TCB* t = joinThreads.removeFirst();
  99:src/tcb.cpp   ****         t->setBlocked(false);
 100:src/tcb.cpp   ****         Scheduler::put(t);
 101:src/tcb.cpp   ****     }
 102:src/tcb.cpp   **** }
  11              		.loc 1 102 1
  12              		.cfi_startproc
  13              	.LVL0:
GAS LISTING /tmp/ccDGSsfN.s 			page 3


  14 0000 130101FF 		addi	sp,sp,-16
  15              		.cfi_def_cfa_offset 16
  16 0004 23348100 		sd	s0,8(sp)
  17              		.cfi_offset 8, -8
  18 0008 13040101 		addi	s0,sp,16
  19              		.cfi_def_cfa 8, 0
  20              		.loc 1 102 1 is_stmt 0
  21 000c 93071000 		li	a5,1
  22 0010 6308F500 		beq	a0,a5,.L4
  23              	.L1:
  24 0014 03348100 		ld	s0,8(sp)
  25              		.cfi_remember_state
  26              		.cfi_restore 8
  27              		.cfi_def_cfa 2, 16
  28 0018 13010101 		addi	sp,sp,16
  29              		.cfi_def_cfa_offset 0
  30 001c 67800000 		jr	ra
  31              	.L4:
  32              		.cfi_restore_state
  33              		.loc 1 102 1 discriminator 1
  34 0020 B7070100 		li	a5,65536
  35 0024 9387F7FF 		addi	a5,a5,-1
  36 0028 E396F5FE 		bne	a1,a5,.L1
  37              	.LVL1:
  38              	.LBB64:
  39              	.LBB65:
  40              	.LBB66:
  41              		.file 2 "src/../h/list.hpp"
   1:src/../h/list.hpp **** //
   2:src/../h/list.hpp **** // Created by marko on 20.4.22..
   3:src/../h/list.hpp **** //
   4:src/../h/list.hpp **** 
   5:src/../h/list.hpp **** #ifndef OS1_VEZBE07_RISCV_CONTEXT_SWITCH_1_SYNCHRONOUS_LIST_HPP
   6:src/../h/list.hpp **** #define OS1_VEZBE07_RISCV_CONTEXT_SWITCH_1_SYNCHRONOUS_LIST_HPP
   7:src/../h/list.hpp **** 
   8:src/../h/list.hpp **** 
   9:src/../h/list.hpp **** template<typename T>
  10:src/../h/list.hpp **** class List
  11:src/../h/list.hpp **** {
  12:src/../h/list.hpp **** private:
  13:src/../h/list.hpp ****     struct Elem
  14:src/../h/list.hpp ****     {
  15:src/../h/list.hpp ****         T *data;
  16:src/../h/list.hpp ****         Elem *next;
  17:src/../h/list.hpp **** 
  18:src/../h/list.hpp ****         Elem(T *data, Elem *next) : data(data), next(next) {}
  19:src/../h/list.hpp ****     };
  20:src/../h/list.hpp **** 
  21:src/../h/list.hpp ****     Elem *head, *tail;
  22:src/../h/list.hpp **** 
  23:src/../h/list.hpp **** public:
  24:src/../h/list.hpp ****     List() : head(0), tail(0) {}
  42              		.loc 2 24 29
  43 002c 97070000 		lla	a5,.LANCHOR0
  43      93870700 
  44 0034 23B00700 		sd	zero,0(a5)
  45 0038 23B40700 		sd	zero,8(a5)
GAS LISTING /tmp/ccDGSsfN.s 			page 4


  46              	.LVL2:
  47              	.LBE66:
  48              	.LBE65:
  49              	.LBE64:
  50              		.loc 1 102 1
  51 003c 6FF09FFD 		j	.L1
  52              		.cfi_endproc
  53              	.LFE62:
  55              		.align	2
  56              		.globl	_ZN3TCB7barrierEv
  58              	_ZN3TCB7barrierEv:
  59              	.LFB45:
  20:src/tcb.cpp   ****     if(blockedNumber  < ID -3){
  60              		.loc 1 20 20 is_stmt 1
  61              		.cfi_startproc
  62 0040 130101FE 		addi	sp,sp,-32
  63              		.cfi_def_cfa_offset 32
  64 0044 233C1100 		sd	ra,24(sp)
  65 0048 23388100 		sd	s0,16(sp)
  66 004c 23349100 		sd	s1,8(sp)
  67 0050 23302101 		sd	s2,0(sp)
  68              		.cfi_offset 1, -8
  69              		.cfi_offset 8, -16
  70              		.cfi_offset 9, -24
  71              		.cfi_offset 18, -32
  72 0054 13040102 		addi	s0,sp,32
  73              		.cfi_def_cfa 8, 0
  21:src/tcb.cpp   ****         blockedBarrier.addLast(TCB::running);
  74              		.loc 1 21 5
  75              	.LBB67:
  21:src/tcb.cpp   ****         blockedBarrier.addLast(TCB::running);
  76              		.loc 1 21 28 is_stmt 0
  77 0058 17070000 		lla	a4,.LANCHOR0
  77      13070700 
  78 0060 83270701 		lw	a5,16(a4)
  79 0064 9B87D7FF 		addiw	a5,a5,-3
  21:src/tcb.cpp   ****         blockedBarrier.addLast(TCB::running);
  80              		.loc 1 21 23
  81 0068 03274701 		lw	a4,20(a4)
  21:src/tcb.cpp   ****         blockedBarrier.addLast(TCB::running);
  82              		.loc 1 21 5
  83 006c 6350F70C 		ble	a5,a4,.L6
  22:src/tcb.cpp   ****         blockedNumber++;
  84              		.loc 1 22 9 is_stmt 1
  22:src/tcb.cpp   ****         blockedNumber++;
  85              		.loc 1 22 31 is_stmt 0
  86 0070 97040000 		lla	s1,.LANCHOR0
  86      93840400 
  87 0078 03B98401 		ld	s2,24(s1)
  88              	.LVL3:
  89              	.LBB68:
  90              	.LBB69:
  25:src/../h/list.hpp **** 
  26:src/../h/list.hpp ****     List(const List<T> &) = delete;
  27:src/../h/list.hpp **** 
  28:src/../h/list.hpp ****     List<T> &operator=(const List<T> &) = delete;
  29:src/../h/list.hpp **** 
GAS LISTING /tmp/ccDGSsfN.s 			page 5


  30:src/../h/list.hpp ****     void addFirst(T *data)
  31:src/../h/list.hpp ****     {
  32:src/../h/list.hpp ****         Elem *elem = new Elem(data, head);
  33:src/../h/list.hpp ****         head = elem;
  34:src/../h/list.hpp ****         if (!tail) { tail = head; }
  35:src/../h/list.hpp ****     }
  36:src/../h/list.hpp **** 
  37:src/../h/list.hpp ****     void addLast(T *data)
  38:src/../h/list.hpp ****     {
  39:src/../h/list.hpp ****         Elem *elem = new Elem(data, 0);
  91              		.loc 2 39 22
  92 007c 13050001 		li	a0,16
  93 0080 97000000 		call	_Znwm@plt
  93      E7800000 
  94              	.LVL4:
  95              	.LBB70:
  96              	.LBB71:
  18:src/../h/list.hpp ****     };
  97              		.loc 2 18 58
  98 0088 23302501 		sd	s2,0(a0)
  99 008c 23340500 		sd	zero,8(a0)
 100              	.LVL5:
 101              	.LBE71:
 102              	.LBE70:
  40:src/../h/list.hpp ****         if (tail)
 103              		.loc 2 40 13
 104 0090 83B78400 		ld	a5,8(s1)
 105              		.loc 2 40 9
 106 0094 63860704 		beqz	a5,.L7
  41:src/../h/list.hpp ****         {
  42:src/../h/list.hpp ****             tail->next = elem;
 107              		.loc 2 42 13
 108 0098 23B4A700 		sd	a0,8(a5)
  43:src/../h/list.hpp ****             tail = elem;
 109              		.loc 2 43 13
 110 009c 97070000 		sd	a0,.LANCHOR0+8,a5
 110      23B0A700 
 111              	.L8:
 112              	.LVL6:
 113              	.LBE69:
 114              	.LBE68:
  23:src/tcb.cpp   ****         TCB::running->setBlocked(true);
 115              		.loc 1 23 9 is_stmt 1
  23:src/tcb.cpp   ****         TCB::running->setBlocked(true);
 116              		.loc 1 23 22 is_stmt 0
 117 00a4 97070000 		lla	a5,.LANCHOR0
 117      93870700 
 118 00ac 03A74701 		lw	a4,20(a5)
 119 00b0 1B071700 		addiw	a4,a4,1
 120 00b4 23AAE700 		sw	a4,20(a5)
  24:src/tcb.cpp   ****     } else {
 121              		.loc 1 24 9 is_stmt 1
  24:src/tcb.cpp   ****     } else {
 122              		.loc 1 24 33 is_stmt 0
 123 00b8 83B78701 		ld	a5,24(a5)
 124              	.LVL7:
 125              	.LBB73:
GAS LISTING /tmp/ccDGSsfN.s 			page 6


 126              	.LBB74:
 127              		.file 3 "src/../h/tcb.hpp"
   1:src/../h/tcb.hpp **** //
   2:src/../h/tcb.hpp **** // Created by os on 5/8/24.
   3:src/../h/tcb.hpp **** //
   4:src/../h/tcb.hpp **** 
   5:src/../h/tcb.hpp **** #ifndef AM180263_CCB_H
   6:src/../h/tcb.hpp **** #define AM180263_CCB_H
   7:src/../h/tcb.hpp **** 
   8:src/../h/tcb.hpp **** #include "../lib/hw.h"
   9:src/../h/tcb.hpp **** #include "scheduler.hpp"
  10:src/../h/tcb.hpp **** #include "../h/syscall_cpp.hpp"
  11:src/../h/tcb.hpp **** #include "../h/MemoryAllocator.hpp"
  12:src/../h/tcb.hpp **** typedef TCB* thread_t;
  13:src/../h/tcb.hpp **** class Thread;
  14:src/../h/tcb.hpp **** 
  15:src/../h/tcb.hpp **** class TCB
  16:src/../h/tcb.hpp **** {
  17:src/../h/tcb.hpp **** public:
  18:src/../h/tcb.hpp **** 
  19:src/../h/tcb.hpp ****     static bool readyToPrintA;
  20:src/../h/tcb.hpp ****     static bool readyToPrintB;
  21:src/../h/tcb.hpp ****     static bool readyToPrintC;
  22:src/../h/tcb.hpp ****     static int timeSliceCounter;
  23:src/../h/tcb.hpp ****     //Thread* threadHandle;
  24:src/../h/tcb.hpp ****     ~TCB() { MemoryAllocator::memfree(stack);}
  25:src/../h/tcb.hpp ****     bool isFinished() const { return finished;}
  26:src/../h/tcb.hpp ****     void setFinished(bool value){ TCB::finished = value; }
  27:src/../h/tcb.hpp **** 
  28:src/../h/tcb.hpp ****     bool isBlocked() const { return blocked;}
  29:src/../h/tcb.hpp ****     void setBlocked(bool blocked) { TCB::blocked = blocked;}
 128              		.loc 3 29 37 is_stmt 1
 129              		.loc 3 29 50 is_stmt 0
 130 00bc 13071000 		li	a4,1
 131 00c0 A38CE702 		sb	a4,57(a5)
 132              	.LVL8:
 133              	.L9:
 134              	.LBE74:
 135              	.LBE73:
 136              	.LBE67:
  33:src/tcb.cpp   **** }
 137              		.loc 1 33 5 is_stmt 1 discriminator 2
  33:src/tcb.cpp   **** }
 138              		.loc 1 33 20 discriminator 2
 139 00c4 97070000 		ld	a5,.LANCHOR0+24
 139      83B70700 
 140 00cc 83C79703 		lbu	a5,57(a5)
 141 00d0 638E0706 		beqz	a5,.L5
  33:src/tcb.cpp   **** }
 142              		.loc 1 33 29 discriminator 1
  33:src/tcb.cpp   **** }
 143              		.loc 1 33 44 is_stmt 0 discriminator 1
 144 00d4 97000000 		call	_Z15thread_dispatchv@plt
 144      E7800000 
 145              	.LVL9:
  33:src/tcb.cpp   **** }
 146              		.loc 1 33 5 discriminator 1
GAS LISTING /tmp/ccDGSsfN.s 			page 7


 147 00dc 6FF09FFE 		j	.L9
 148              	.LVL10:
 149              	.L7:
 150              	.LBB87:
 151              	.LBB75:
 152              	.LBB72:
  44:src/../h/list.hpp ****         } else
  45:src/../h/list.hpp ****         {
  46:src/../h/list.hpp ****             head = tail = elem;
 153              		.loc 2 46 13
 154 00e0 97070000 		lla	a5,.LANCHOR0
 154      93870700 
 155 00e8 23B4A700 		sd	a0,8(a5)
 156 00ec 23B0A700 		sd	a0,0(a5)
 157 00f0 6FF05FFB 		j	.L8
 158              	.LVL11:
 159              	.L14:
 160              	.LBE72:
 161              	.LBE75:
 162              	.LBB76:
 163              	.LBB77:
 164              	.LBB78:
 165              	.LBB79:
  47:src/../h/list.hpp ****         }
  48:src/../h/list.hpp ****     }
  49:src/../h/list.hpp **** 
  50:src/../h/list.hpp ****     T *removeFirst()
  51:src/../h/list.hpp ****     {
  52:src/../h/list.hpp ****         if (!head) { return 0; }
  53:src/../h/list.hpp **** 
  54:src/../h/list.hpp ****         Elem *elem = head;
  55:src/../h/list.hpp ****         head = head->next;
  56:src/../h/list.hpp ****         if (!head) { tail = 0; }
 166              		.loc 2 56 22
 167 00f4 97070000 		sd	zero,.LANCHOR0+8,a5
 167      23B00700 
 168              	.L11:
  57:src/../h/list.hpp **** 
  58:src/../h/list.hpp ****         T *ret = elem->data;
 169              		.loc 2 58 12
 170 00fc 83340500 		ld	s1,0(a0)
 171              	.LVL12:
  59:src/../h/list.hpp ****         delete elem;
 172              		.loc 2 59 9
 173 0100 97000000 		call	_ZdlPv@plt
 173      E7800000 
 174              	.LVL13:
 175              	.LBE79:
 176              	.LBE78:
  28:src/tcb.cpp   ****             blockedNumber--;
 177              		.loc 1 28 13 is_stmt 1
 178              	.LBB81:
 179              	.LBB82:
 180              		.loc 3 29 37
 181              		.loc 3 29 50 is_stmt 0
 182 0108 A38C0402 		sb	zero,57(s1)
 183              	.LVL14:
GAS LISTING /tmp/ccDGSsfN.s 			page 8


 184              	.LBE82:
 185              	.LBE81:
  29:src/tcb.cpp   ****             Scheduler::put(t);
 186              		.loc 1 29 13 is_stmt 1
  29:src/tcb.cpp   ****             Scheduler::put(t);
 187              		.loc 1 29 26 is_stmt 0
 188 010c 17070000 		lla	a4,.LANCHOR0
 188      13070700 
 189 0114 83274701 		lw	a5,20(a4)
 190 0118 9B87F7FF 		addiw	a5,a5,-1
 191 011c 232AF700 		sw	a5,20(a4)
  30:src/tcb.cpp   ****         }
 192              		.loc 1 30 13 is_stmt 1
  30:src/tcb.cpp   ****         }
 193              		.loc 1 30 27 is_stmt 0
 194 0120 13850400 		mv	a0,s1
 195 0124 97000000 		call	_ZN9Scheduler3putEP3TCB@plt
 195      E7800000 
 196              	.LVL15:
 197              	.L6:
 198              	.LBE77:
  26:src/tcb.cpp   ****             TCB *t = blockedBarrier.removeFirst();
 199              		.loc 1 26 9 is_stmt 1
  26:src/tcb.cpp   ****             TCB *t = blockedBarrier.removeFirst();
 200              		.loc 1 26 38
 201              	.LBB84:
 202              	.LBB85:
  60:src/../h/list.hpp ****         return ret;
  61:src/../h/list.hpp ****     }
  62:src/../h/list.hpp **** 
  63:src/../h/list.hpp ****     T *peekFirst()
  64:src/../h/list.hpp ****     {
  65:src/../h/list.hpp ****         if (!head) { return 0; }
  66:src/../h/list.hpp ****         return head->data;
  67:src/../h/list.hpp ****     }
  68:src/../h/list.hpp **** 
  69:src/../h/list.hpp ****     T *removeLast()
  70:src/../h/list.hpp ****     {
  71:src/../h/list.hpp ****         if (!head) { return 0; }
  72:src/../h/list.hpp **** 
  73:src/../h/list.hpp ****         Elem *prev = 0;
  74:src/../h/list.hpp ****         for (Elem *curr = head; curr && curr != tail; curr = curr->next)
  75:src/../h/list.hpp ****         {
  76:src/../h/list.hpp ****             prev = curr;
  77:src/../h/list.hpp ****         }
  78:src/../h/list.hpp **** 
  79:src/../h/list.hpp ****         Elem *elem = tail;
  80:src/../h/list.hpp ****         if (prev) { prev->next = 0; }
  81:src/../h/list.hpp ****         else { head = 0; }
  82:src/../h/list.hpp ****         tail = prev;
  83:src/../h/list.hpp **** 
  84:src/../h/list.hpp ****         T *ret = elem->data;
  85:src/../h/list.hpp ****         delete elem;
  86:src/../h/list.hpp ****         return ret;
  87:src/../h/list.hpp ****     }
  88:src/../h/list.hpp **** 
  89:src/../h/list.hpp ****     T *peekLast()
GAS LISTING /tmp/ccDGSsfN.s 			page 9


  90:src/../h/list.hpp ****     {
  91:src/../h/list.hpp ****         if (!tail) { return 0; }
  92:src/../h/list.hpp ****         return tail->data;
  93:src/../h/list.hpp ****     }
  94:src/../h/list.hpp **** 
  95:src/../h/list.hpp ****     bool hasElem(){
  96:src/../h/list.hpp ****         if(head) return true;
 203              		.loc 2 96 12 is_stmt 0
 204 012c 17050000 		ld	a0,.LANCHOR0
 204      03350500 
 205              		.loc 2 96 9
 206 0134 E30805F8 		beqz	a0,.L9
 207              	.LVL16:
 208              	.LBE85:
 209              	.LBE84:
 210              	.LBB86:
  27:src/tcb.cpp   ****             t->setBlocked(false);
 211              		.loc 1 27 13 is_stmt 1
 212              	.LBB83:
 213              	.LBB80:
  55:src/../h/list.hpp ****         if (!head) { tail = 0; }
 214              		.loc 2 55 22 is_stmt 0
 215 0138 83378500 		ld	a5,8(a0)
  55:src/../h/list.hpp ****         if (!head) { tail = 0; }
 216              		.loc 2 55 9
 217 013c 17070000 		sd	a5,.LANCHOR0,a4
 217      2330F700 
  56:src/../h/list.hpp **** 
 218              		.loc 2 56 9
 219 0144 E39C07FA 		bnez	a5,.L11
 220 0148 6FF0DFFA 		j	.L14
 221              	.LVL17:
 222              	.L5:
 223              	.LBE80:
 224              	.LBE83:
 225              	.LBE86:
 226              	.LBE76:
 227              	.LBE87:
  34:src/tcb.cpp   **** 
 228              		.loc 1 34 1
 229 014c 83308101 		ld	ra,24(sp)
 230              		.cfi_restore 1
 231 0150 03340101 		ld	s0,16(sp)
 232              		.cfi_restore 8
 233              		.cfi_def_cfa 2, 32
 234 0154 83348100 		ld	s1,8(sp)
 235              		.cfi_restore 9
 236 0158 03390100 		ld	s2,0(sp)
 237              		.cfi_restore 18
 238 015c 13010102 		addi	sp,sp,32
 239              		.cfi_def_cfa_offset 0
 240 0160 67800000 		jr	ra
 241              		.cfi_endproc
 242              	.LFE45:
 244              		.align	2
 245              		.globl	_ZN3TCB5yieldEv
 247              	_ZN3TCB5yieldEv:
GAS LISTING /tmp/ccDGSsfN.s 			page 10


 248              	.LFB46:
  36:src/tcb.cpp   **** 
 249              		.loc 1 36 18 is_stmt 1
 250              		.cfi_startproc
 251 0164 130101FF 		addi	sp,sp,-16
 252              		.cfi_def_cfa_offset 16
 253 0168 23348100 		sd	s0,8(sp)
 254              		.cfi_offset 8, -8
 255 016c 13040101 		addi	s0,sp,16
 256              		.cfi_def_cfa 8, 0
  38:src/tcb.cpp   ****     __asm__ volatile("mv a0, %0" : : "r"(code));
 257              		.loc 1 38 5
 258              	.LVL18:
  39:src/tcb.cpp   ****     __asm__ volatile("ecall");
 259              		.loc 1 39 5
  39:src/tcb.cpp   ****     __asm__ volatile("ecall");
 260              		.loc 1 39 48 is_stmt 0
 261 0170 93073001 		li	a5,19
 262              	#APP
 263              	# 39 "src/tcb.cpp" 1
  40:src/tcb.cpp   **** 
 264              		mv a0, a5
 265              	# 0 "" 2
 266              		.loc 1 40 5 is_stmt 1
  40:src/tcb.cpp   **** 
 267              		.loc 1 40 30 is_stmt 0
 268              	# 40 "src/tcb.cpp" 1
  42:src/tcb.cpp   **** 
 269              		ecall
 270              	# 0 "" 2
 271              		.loc 1 42 1
 272              	#NO_APP
 273 017c 03348100 		ld	s0,8(sp)
 274              		.cfi_restore 8
 275              		.cfi_def_cfa 2, 16
 276 0180 13010101 		addi	sp,sp,16
 277              		.cfi_def_cfa_offset 0
 278 0184 67800000 		jr	ra
 279              		.cfi_endproc
 280              	.LFE46:
 282              		.align	2
 283              		.globl	_ZN3TCB8dispatchEv
 285              	_ZN3TCB8dispatchEv:
 286              	.LFB47:
  44:src/tcb.cpp   ****     TCB *old = running;
 287              		.loc 1 44 21 is_stmt 1
 288              		.cfi_startproc
 289 0188 130101FE 		addi	sp,sp,-32
 290              		.cfi_def_cfa_offset 32
 291 018c 233C1100 		sd	ra,24(sp)
 292 0190 23388100 		sd	s0,16(sp)
 293 0194 23349100 		sd	s1,8(sp)
 294              		.cfi_offset 1, -8
 295              		.cfi_offset 8, -16
 296              		.cfi_offset 9, -24
 297 0198 13040102 		addi	s0,sp,32
 298              		.cfi_def_cfa 8, 0
GAS LISTING /tmp/ccDGSsfN.s 			page 11


  45:src/tcb.cpp   ****     if(!old->isFinished() && !old->isBlocked()){
 299              		.loc 1 45 5
  45:src/tcb.cpp   ****     if(!old->isFinished() && !old->isBlocked()){
 300              		.loc 1 45 10 is_stmt 0
 301 019c 97040000 		ld	s1,.LANCHOR0+24
 301      83B40400 
 302              	.LVL19:
  46:src/tcb.cpp   ****         Scheduler::put(old);
 303              		.loc 1 46 5 is_stmt 1
 304              	.LBB88:
 305              	.LBB89:
  25:src/../h/tcb.hpp ****     void setFinished(bool value){ TCB::finished = value; }
 306              		.loc 3 25 31
  25:src/../h/tcb.hpp ****     void setFinished(bool value){ TCB::finished = value; }
 307              		.loc 3 25 38 is_stmt 0
 308 01a4 83C78403 		lbu	a5,56(s1)
 309              	.LVL20:
 310              	.LBE89:
 311              	.LBE88:
  46:src/tcb.cpp   ****         Scheduler::put(old);
 312              		.loc 1 46 27
 313 01a8 63960700 		bnez	a5,.L18
 314              	.LVL21:
 315              	.LBB90:
 316              	.LBB91:
  28:src/../h/tcb.hpp ****     void setBlocked(bool blocked) { TCB::blocked = blocked;}
 317              		.loc 3 28 30 is_stmt 1
  28:src/../h/tcb.hpp ****     void setBlocked(bool blocked) { TCB::blocked = blocked;}
 318              		.loc 3 28 37 is_stmt 0
 319 01ac 83C79403 		lbu	a5,57(s1)
 320              	.LVL22:
 321              	.LBE91:
 322              	.LBE90:
  46:src/tcb.cpp   ****         Scheduler::put(old);
 323              		.loc 1 46 27
 324 01b0 63840704 		beqz	a5,.L22
 325              	.L18:
  49:src/tcb.cpp   **** 
 326              		.loc 1 49 5 is_stmt 1
  49:src/tcb.cpp   **** 
 327              		.loc 1 49 29 is_stmt 0
 328 01b4 97000000 		call	_ZN9Scheduler3getEv@plt
 328      E7800000 
 329              	.LVL23:
  49:src/tcb.cpp   **** 
 330              		.loc 1 49 13
 331 01bc 97070000 		sd	a0,.LANCHOR0+24,a5
 331      23B0A700 
  51:src/tcb.cpp   ****     else Riscv::mc_sstatus(Riscv::SSTATUS_SPP);
 332              		.loc 1 51 5 is_stmt 1
 333              	.LVL24:
 334              	.LBB92:
 335              	.LBB93:
  30:src/../h/tcb.hpp **** 
  31:src/../h/tcb.hpp ****     static TCB *getRunning() {return running;}
  32:src/../h/tcb.hpp ****     static void setRunning(TCB *running) {TCB::running = running;}
  33:src/../h/tcb.hpp **** 
GAS LISTING /tmp/ccDGSsfN.s 			page 12


  34:src/../h/tcb.hpp ****     bool isMain() const{ return main;}
 336              		.loc 3 34 26
 337              		.loc 3 34 33 is_stmt 0
 338 01c4 8347A503 		lbu	a5,58(a0)
 339              	.LVL25:
 340              	.LBE93:
 341              	.LBE92:
  51:src/tcb.cpp   ****     else Riscv::mc_sstatus(Riscv::SSTATUS_SPP);
 342              		.loc 1 51 5
 343 01c8 63800704 		beqz	a5,.L19
  51:src/tcb.cpp   ****     else Riscv::mc_sstatus(Riscv::SSTATUS_SPP);
 344              		.loc 1 51 27 is_stmt 1
 345              	.LVL26:
 346              	.LBB94:
 347              	.LBB95:
 348              		.file 4 "src/../h/riscv.hpp"
   1:src/../h/riscv.hpp **** //
   2:src/../h/riscv.hpp **** // Created by marko on 20.4.22..
   3:src/../h/riscv.hpp **** //
   4:src/../h/riscv.hpp **** 
   5:src/../h/riscv.hpp **** #ifndef OS1_VEZBE07_RISCV_CONTEXT_SWITCH_1_SYNCHRONOUS_RISCV_HPP
   6:src/../h/riscv.hpp **** #define OS1_VEZBE07_RISCV_CONTEXT_SWITCH_1_SYNCHRONOUS_RISCV_HPP
   7:src/../h/riscv.hpp **** 
   8:src/../h/riscv.hpp **** #include "../lib/hw.h"
   9:src/../h/riscv.hpp **** 
  10:src/../h/riscv.hpp **** class Riscv
  11:src/../h/riscv.hpp **** {
  12:src/../h/riscv.hpp **** public:
  13:src/../h/riscv.hpp ****     static void pop();
  14:src/../h/riscv.hpp ****     static void push();
  15:src/../h/riscv.hpp **** 
  16:src/../h/riscv.hpp ****     // pop sstatus.spp and sstatus.spie bits (has to be a non inline function)
  17:src/../h/riscv.hpp ****     static void popSppSpie();
  18:src/../h/riscv.hpp **** 
  19:src/../h/riscv.hpp ****     // push x3..x31 registers onto stack
  20:src/../h/riscv.hpp **** //    static void pushRegisters();
  21:src/../h/riscv.hpp **** //
  22:src/../h/riscv.hpp **** //    // pop x3..x31 registers onto stack
  23:src/../h/riscv.hpp **** //    static void popRegisters();
  24:src/../h/riscv.hpp **** 
  25:src/../h/riscv.hpp ****     // read register scause
  26:src/../h/riscv.hpp ****     static uint64 r_scause();
  27:src/../h/riscv.hpp **** 
  28:src/../h/riscv.hpp ****     // write register scause
  29:src/../h/riscv.hpp ****     static void w_scause(uint64 scause);
  30:src/../h/riscv.hpp **** 
  31:src/../h/riscv.hpp ****     // read register sepc
  32:src/../h/riscv.hpp ****     static uint64 r_sepc();
  33:src/../h/riscv.hpp **** 
  34:src/../h/riscv.hpp ****     // write register sepc
  35:src/../h/riscv.hpp ****     static void w_sepc(uint64 sepc);
  36:src/../h/riscv.hpp **** 
  37:src/../h/riscv.hpp ****     // read register stvec
  38:src/../h/riscv.hpp ****     static uint64 r_stvec();
  39:src/../h/riscv.hpp **** 
  40:src/../h/riscv.hpp ****     // write register stvec
  41:src/../h/riscv.hpp ****     static void w_stvec(uint64 stvec);
GAS LISTING /tmp/ccDGSsfN.s 			page 13


  42:src/../h/riscv.hpp **** 
  43:src/../h/riscv.hpp ****     // read register stval
  44:src/../h/riscv.hpp ****     static uint64 r_stval();
  45:src/../h/riscv.hpp **** 
  46:src/../h/riscv.hpp ****     // write register stval
  47:src/../h/riscv.hpp ****     static void w_stval(uint64 stval);
  48:src/../h/riscv.hpp **** 
  49:src/../h/riscv.hpp ****     enum BitMaskSip
  50:src/../h/riscv.hpp ****     {
  51:src/../h/riscv.hpp ****         SIP_SSIE = (1 << 1),
  52:src/../h/riscv.hpp ****         SIP_STIE = (1 << 5),
  53:src/../h/riscv.hpp ****         SIP_SEIE = (1 << 9),
  54:src/../h/riscv.hpp ****     };
  55:src/../h/riscv.hpp **** 
  56:src/../h/riscv.hpp ****     // mask set register sip
  57:src/../h/riscv.hpp ****     static void ms_sip(uint64 mask);
  58:src/../h/riscv.hpp **** 
  59:src/../h/riscv.hpp ****     // mask clear register sip
  60:src/../h/riscv.hpp ****     static void mc_sip(uint64 mask);
  61:src/../h/riscv.hpp **** 
  62:src/../h/riscv.hpp ****     // read register sip
  63:src/../h/riscv.hpp ****     static uint64 r_sip();
  64:src/../h/riscv.hpp **** 
  65:src/../h/riscv.hpp ****     // write register sip
  66:src/../h/riscv.hpp ****     static void w_sip(uint64 sip);
  67:src/../h/riscv.hpp **** 
  68:src/../h/riscv.hpp ****     enum BitMaskSstatus
  69:src/../h/riscv.hpp ****     {
  70:src/../h/riscv.hpp ****         SSTATUS_SIE = (1 << 1),
  71:src/../h/riscv.hpp ****         SSTATUS_SPIE = (1 << 5),
  72:src/../h/riscv.hpp ****         SSTATUS_SPP = (1 << 8),
  73:src/../h/riscv.hpp ****     };
  74:src/../h/riscv.hpp **** 
  75:src/../h/riscv.hpp ****     // mask set register sstatus
  76:src/../h/riscv.hpp ****     static void ms_sstatus(uint64 mask);
  77:src/../h/riscv.hpp **** 
  78:src/../h/riscv.hpp ****     // mask clear register sstatus
  79:src/../h/riscv.hpp ****     static void mc_sstatus(uint64 mask);
  80:src/../h/riscv.hpp **** 
  81:src/../h/riscv.hpp ****     // read register sstatus
  82:src/../h/riscv.hpp ****     static uint64 r_sstatus();
  83:src/../h/riscv.hpp **** 
  84:src/../h/riscv.hpp ****     // write register sstatus
  85:src/../h/riscv.hpp ****     static void w_sstatus(uint64 sstatus);
  86:src/../h/riscv.hpp **** 
  87:src/../h/riscv.hpp ****     static void supervisorTrap();
  88:src/../h/riscv.hpp **** 
  89:src/../h/riscv.hpp **** private:
  90:src/../h/riscv.hpp ****     static void handleSupervisorTrap();
  91:src/../h/riscv.hpp ****     static void handleBegin();
  92:src/../h/riscv.hpp **** 
  93:src/../h/riscv.hpp **** 
  94:src/../h/riscv.hpp **** };
  95:src/../h/riscv.hpp **** 
  96:src/../h/riscv.hpp **** inline uint64 Riscv::r_scause()
  97:src/../h/riscv.hpp **** {
  98:src/../h/riscv.hpp ****     uint64 volatile scause;
GAS LISTING /tmp/ccDGSsfN.s 			page 14


  99:src/../h/riscv.hpp ****     __asm__ volatile ("csrr %[scause], scause" : [scause] "=r"(scause));
 100:src/../h/riscv.hpp ****     return scause;
 101:src/../h/riscv.hpp **** }
 102:src/../h/riscv.hpp **** 
 103:src/../h/riscv.hpp **** inline void Riscv::w_scause(uint64 scause)
 104:src/../h/riscv.hpp **** {
 105:src/../h/riscv.hpp ****     __asm__ volatile ("csrw scause, %[scause]" : : [scause] "r"(scause));
 106:src/../h/riscv.hpp **** }
 107:src/../h/riscv.hpp **** 
 108:src/../h/riscv.hpp **** inline uint64 Riscv::r_sepc()
 109:src/../h/riscv.hpp **** {
 110:src/../h/riscv.hpp ****     uint64 volatile sepc;
 111:src/../h/riscv.hpp ****     __asm__ volatile ("csrr %[sepc], sepc" : [sepc] "=r"(sepc));
 112:src/../h/riscv.hpp ****     return sepc;
 113:src/../h/riscv.hpp **** }
 114:src/../h/riscv.hpp **** 
 115:src/../h/riscv.hpp **** inline void Riscv::w_sepc(uint64 sepc)
 116:src/../h/riscv.hpp **** {
 117:src/../h/riscv.hpp ****     __asm__ volatile ("csrw sepc, %[sepc]" : : [sepc] "r"(sepc));
 118:src/../h/riscv.hpp **** }
 119:src/../h/riscv.hpp **** 
 120:src/../h/riscv.hpp **** inline uint64 Riscv::r_stvec()
 121:src/../h/riscv.hpp **** {
 122:src/../h/riscv.hpp ****     uint64 volatile stvec;
 123:src/../h/riscv.hpp ****     __asm__ volatile ("csrr %[stvec], stvec" : [stvec] "=r"(stvec));
 124:src/../h/riscv.hpp ****     return stvec;
 125:src/../h/riscv.hpp **** }
 126:src/../h/riscv.hpp **** 
 127:src/../h/riscv.hpp **** inline void Riscv::w_stvec(uint64 stvec)
 128:src/../h/riscv.hpp **** {
 129:src/../h/riscv.hpp ****     __asm__ volatile ("csrw stvec, %[stvec]" : : [stvec] "r"(stvec));
 130:src/../h/riscv.hpp **** }
 131:src/../h/riscv.hpp **** 
 132:src/../h/riscv.hpp **** inline uint64 Riscv::r_stval()
 133:src/../h/riscv.hpp **** {
 134:src/../h/riscv.hpp ****     uint64 volatile stval;
 135:src/../h/riscv.hpp ****     __asm__ volatile ("csrr %[stval], stval" : [stval] "=r"(stval));
 136:src/../h/riscv.hpp ****     return stval;
 137:src/../h/riscv.hpp **** }
 138:src/../h/riscv.hpp **** 
 139:src/../h/riscv.hpp **** inline void Riscv::w_stval(uint64 stval)
 140:src/../h/riscv.hpp **** {
 141:src/../h/riscv.hpp ****     __asm__ volatile ("csrw stval, %[stval]" : : [stval] "r"(stval));
 142:src/../h/riscv.hpp **** }
 143:src/../h/riscv.hpp **** 
 144:src/../h/riscv.hpp **** inline void Riscv::ms_sip(uint64 mask)
 145:src/../h/riscv.hpp **** {
 146:src/../h/riscv.hpp ****     __asm__ volatile ("csrs sip, %[mask]" : : [mask] "r"(mask));
 147:src/../h/riscv.hpp **** }
 148:src/../h/riscv.hpp **** 
 149:src/../h/riscv.hpp **** inline void Riscv::mc_sip(uint64 mask)
 150:src/../h/riscv.hpp **** {
 151:src/../h/riscv.hpp ****     __asm__ volatile ("csrc sip, %[mask]" : : [mask] "r"(mask));
 152:src/../h/riscv.hpp **** }
 153:src/../h/riscv.hpp **** 
 154:src/../h/riscv.hpp **** inline uint64 Riscv::r_sip()
 155:src/../h/riscv.hpp **** {
GAS LISTING /tmp/ccDGSsfN.s 			page 15


 156:src/../h/riscv.hpp ****     uint64 volatile sip;
 157:src/../h/riscv.hpp ****     __asm__ volatile ("csrr %[sip], sip" : [sip] "=r"(sip));
 158:src/../h/riscv.hpp ****     return sip;
 159:src/../h/riscv.hpp **** }
 160:src/../h/riscv.hpp **** 
 161:src/../h/riscv.hpp **** inline void Riscv::w_sip(uint64 sip)
 162:src/../h/riscv.hpp **** {
 163:src/../h/riscv.hpp ****     __asm__ volatile ("csrw sip, %[sip]" : : [sip] "r"(sip));
 164:src/../h/riscv.hpp **** }
 165:src/../h/riscv.hpp **** 
 166:src/../h/riscv.hpp **** inline void Riscv::ms_sstatus(uint64 mask)
 167:src/../h/riscv.hpp **** {
 168:src/../h/riscv.hpp ****     __asm__ volatile ("csrs sstatus, %[mask]" : : [mask] "r"(mask));
 349              		.loc 4 168 5
 350              		.loc 4 168 68 is_stmt 0
 351 01cc 93070010 		li	a5,256
 352              	#APP
 353              	# 168 "src/../h/riscv.hpp" 1
 169              	}
 354              		csrs sstatus, a5
 355              	# 0 "" 2
 356              	.LVL27:
 357              	#NO_APP
 358              	.L20:
 359              	.LBE95:
 360              	.LBE94:
  53:src/tcb.cpp   **** }
 361              		.loc 1 53 5 is_stmt 1
  53:src/tcb.cpp   **** }
 362              		.loc 1 53 23 is_stmt 0
 363 01d4 93058501 		addi	a1,a0,24
 364 01d8 13858401 		addi	a0,s1,24
 365 01dc 97000000 		call	_ZN3TCB13contextSwitchEPNS_7ContextES1_@plt
 365      E7800000 
 366              	.LVL28:
  54:src/tcb.cpp   **** 
 367              		.loc 1 54 1
 368 01e4 83308101 		ld	ra,24(sp)
 369              		.cfi_remember_state
 370              		.cfi_restore 1
 371 01e8 03340101 		ld	s0,16(sp)
 372              		.cfi_restore 8
 373              		.cfi_def_cfa 2, 32
 374 01ec 83348100 		ld	s1,8(sp)
 375              		.cfi_restore 9
 376              	.LVL29:
 377 01f0 13010102 		addi	sp,sp,32
 378              		.cfi_def_cfa_offset 0
 379 01f4 67800000 		jr	ra
 380              	.LVL30:
 381              	.L22:
 382              		.cfi_restore_state
  47:src/tcb.cpp   ****     }
 383              		.loc 1 47 9 is_stmt 1
  47:src/tcb.cpp   ****     }
 384              		.loc 1 47 23 is_stmt 0
 385 01f8 13850400 		mv	a0,s1
GAS LISTING /tmp/ccDGSsfN.s 			page 16


 386 01fc 97000000 		call	_ZN9Scheduler3putEP3TCB@plt
 386      E7800000 
 387              	.LVL31:
 388 0204 6FF01FFB 		j	.L18
 389              	.L19:
  52:src/tcb.cpp   ****     TCB::contextSwitch(&old->context, &running->context);
 390              		.loc 1 52 10 is_stmt 1
 391              	.LVL32:
 392              	.LBB96:
 393              	.LBB97:
 170:src/../h/riscv.hpp **** 
 171:src/../h/riscv.hpp **** inline void Riscv::mc_sstatus(uint64 mask)
 172:src/../h/riscv.hpp **** {
 173:src/../h/riscv.hpp ****     __asm__ volatile ("csrc sstatus, %[mask]" : : [mask] "r"(mask));
 394              		.loc 4 173 5
 395              		.loc 4 173 68 is_stmt 0
 396 0208 93070010 		li	a5,256
 397              	#APP
 398              	# 173 "src/../h/riscv.hpp" 1
 174              	}
 399              		csrc sstatus, a5
 400              	# 0 "" 2
 401              		.loc 4 174 1
 402              	#NO_APP
 403 0210 6FF05FFC 		j	.L20
 404              	.LBE97:
 405              	.LBE96:
 406              		.cfi_endproc
 407              	.LFE47:
 409              		.align	2
 410              		.globl	_ZN3TCB12createThreadEPFvPvES0_
 412              	_ZN3TCB12createThreadEPFvPvES0_:
 413              	.LFB48:
  57:src/tcb.cpp   ****     TCB* newTCB = new TCB(body, arg);
 414              		.loc 1 57 1 is_stmt 1
 415              		.cfi_startproc
 416              		.cfi_personality 0x9b,DW.ref.__gxx_personality_v0
 417              		.cfi_lsda 0x1b,.LLSDA48
 418              	.LVL33:
 419 0214 130101FD 		addi	sp,sp,-48
 420              		.cfi_def_cfa_offset 48
 421 0218 23341102 		sd	ra,40(sp)
 422 021c 23308102 		sd	s0,32(sp)
 423 0220 233C9100 		sd	s1,24(sp)
 424 0224 23382101 		sd	s2,16(sp)
 425 0228 23343101 		sd	s3,8(sp)
 426              		.cfi_offset 1, -8
 427              		.cfi_offset 8, -16
 428              		.cfi_offset 9, -24
 429              		.cfi_offset 18, -32
 430              		.cfi_offset 19, -40
 431 022c 13040103 		addi	s0,sp,48
 432              		.cfi_def_cfa 8, 0
 433 0230 13090500 		mv	s2,a0
 434 0234 93890500 		mv	s3,a1
  58:src/tcb.cpp   ****     if(!newTCB->isMain())
 435              		.loc 1 58 5
GAS LISTING /tmp/ccDGSsfN.s 			page 17


  58:src/tcb.cpp   ****     if(!newTCB->isMain())
 436              		.loc 1 58 36 is_stmt 0
 437 0238 13050005 		li	a0,80
 438              	.LVL34:
 439              	.LEHB0:
 440 023c 97000000 		call	_Znwm@plt
 440      E7800000 
 441              	.LVL35:
 442              	.LEHE0:
 443 0244 93040500 		mv	s1,a0
 444              	.LVL36:
 445              	.LBB106:
 446              	.LBB107:
  35:src/../h/tcb.hpp **** 
  36:src/../h/tcb.hpp ****     uint64 getTimeSlice() const { return timeSlice;}
  37:src/../h/tcb.hpp ****     void setTimeSlice(uint64 timeSlice) {TCB::timeSlice = timeSlice;}
  38:src/../h/tcb.hpp **** 
  39:src/../h/tcb.hpp ****     using Body = void (*) (void* );
  40:src/../h/tcb.hpp ****     Thread* threadHandle;
  41:src/../h/tcb.hpp **** 
  42:src/../h/tcb.hpp ****    static TCB * createThread(Body body, void* arg);
  43:src/../h/tcb.hpp **** 
  44:src/../h/tcb.hpp ****     static int exitThread();
  45:src/../h/tcb.hpp ****     static void dispatch();
  46:src/../h/tcb.hpp ****     static void join(TCB* handle);
  47:src/../h/tcb.hpp ****     void release();
  48:src/../h/tcb.hpp **** 
  49:src/../h/tcb.hpp ****     static void yield();
  50:src/../h/tcb.hpp ****     static TCB *running;
  51:src/../h/tcb.hpp ****     static int ID;
  52:src/../h/tcb.hpp **** 
  53:src/../h/tcb.hpp ****     static int getId() { return running->myId;};
  54:src/../h/tcb.hpp ****     static void barrier();
  55:src/../h/tcb.hpp **** private:
  56:src/../h/tcb.hpp ****     TCB(Body body, void* arg) :
  57:src/../h/tcb.hpp ****     body(body),
  58:src/../h/tcb.hpp ****     stack(new uint64[DEFAULT_STACK_SIZE]),
  59:src/../h/tcb.hpp ****     context({
  60:src/../h/tcb.hpp ****         (uint64) &threadWrapper,
  61:src/../h/tcb.hpp ****         stack != nullptr ? (uint64) &stack[DEFAULT_STACK_SIZE] : 0
  62:src/../h/tcb.hpp ****             }),
  63:src/../h/tcb.hpp ****             timeSlice(DEFAULT_TIME_SLICE),
  64:src/../h/tcb.hpp ****             arg(arg),
  65:src/../h/tcb.hpp ****             finished(false),
  66:src/../h/tcb.hpp ****             blocked(false),
  67:src/../h/tcb.hpp ****             main(body == nullptr ? true : false),
  68:src/../h/tcb.hpp ****             myId(ID++)
 447              		.loc 3 68 22
 448 0248 23342501 		sd	s2,8(a0)
  58:src/../h/tcb.hpp ****     context({
 449              		.loc 3 58 40
 450 024c 37850000 		li	a0,32768
 451              	.LEHB1:
 452 0250 97000000 		call	_Znam@plt
 452      E7800000 
 453              	.LVL37:
 454              	.LEHE1:
GAS LISTING /tmp/ccDGSsfN.s 			page 18


 455              		.loc 3 68 22
 456 0258 23B8A400 		sd	a0,16(s1)
 457 025c 97070000 		lla	a5,_ZN3TCB13threadWrapperEv
 457      93870700 
 458 0264 23BCF400 		sd	a5,24(s1)
  61:src/../h/tcb.hpp ****             }),
 459              		.loc 3 61 26
 460 0268 630A0506 		beqz	a0,.L27
  61:src/../h/tcb.hpp ****             }),
 461              		.loc 3 61 37
 462 026c B7870000 		li	a5,32768
 463 0270 3305F500 		add	a0,a0,a5
 464              	.L24:
 465              		.loc 3 68 22
 466 0274 23B0A402 		sd	a0,32(s1)
 467 0278 93072000 		li	a5,2
 468 027c 23B4F402 		sd	a5,40(s1)
 469 0280 23B83403 		sd	s3,48(s1)
 470 0284 238C0402 		sb	zero,56(s1)
 471 0288 A38C0402 		sb	zero,57(s1)
  67:src/../h/tcb.hpp ****             myId(ID++)
 472              		.loc 3 67 34
 473 028c 13391900 		seqz	s2,s2
 474              	.LVL38:
 475              		.loc 3 68 22
 476 0290 238D2403 		sb	s2,58(s1)
 477              		.loc 3 68 20
 478 0294 17070000 		lla	a4,.LANCHOR0
 478      13070700 
 479 029c 83270701 		lw	a5,16(a4)
 480 02a0 9B861700 		addiw	a3,a5,1
 481 02a4 2328D700 		sw	a3,16(a4)
 482              		.loc 3 68 22
 483 02a8 23AEF402 		sw	a5,60(s1)
 484              	.LVL39:
 485              	.LBB108:
 486              	.LBB109:
  24:src/../h/list.hpp **** 
 487              		.loc 2 24 29
 488 02ac 23B00404 		sd	zero,64(s1)
 489 02b0 23B40404 		sd	zero,72(s1)
 490              	.LVL40:
 491              	.LBE109:
 492              	.LBE108:
 493              	.LBE107:
 494              	.LBE106:
  59:src/tcb.cpp   ****     Scheduler::put(newTCB);
 495              		.loc 1 59 5 is_stmt 1
 496              	.LBB111:
 497              	.LBB112:
  34:src/../h/tcb.hpp **** 
 498              		.loc 3 34 26
  34:src/../h/tcb.hpp **** 
 499              		.loc 3 34 33 is_stmt 0
 500 02b4 13791900 		andi	s2,s2,1
 501              	.LVL41:
 502              	.LBE112:
GAS LISTING /tmp/ccDGSsfN.s 			page 19


 503              	.LBE111:
  59:src/tcb.cpp   ****     Scheduler::put(newTCB);
 504              		.loc 1 59 5
 505 02b8 63060902 		beqz	s2,.L30
 506              	.L23:
  62:src/tcb.cpp   **** 
 507              		.loc 1 62 1
 508 02bc 13850400 		mv	a0,s1
 509 02c0 83308102 		ld	ra,40(sp)
 510              		.cfi_remember_state
 511              		.cfi_restore 1
 512 02c4 03340102 		ld	s0,32(sp)
 513              		.cfi_restore 8
 514              		.cfi_def_cfa 2, 48
 515 02c8 83348101 		ld	s1,24(sp)
 516              		.cfi_restore 9
 517              	.LVL42:
 518 02cc 03390101 		ld	s2,16(sp)
 519              		.cfi_restore 18
 520 02d0 83398100 		ld	s3,8(sp)
 521              		.cfi_restore 19
 522              	.LVL43:
 523 02d4 13010103 		addi	sp,sp,48
 524              		.cfi_def_cfa_offset 0
 525 02d8 67800000 		jr	ra
 526              	.LVL44:
 527              	.L27:
 528              		.cfi_restore_state
 529              	.LBB113:
 530              	.LBB110:
  61:src/../h/tcb.hpp ****             }),
 531              		.loc 3 61 26
 532 02dc 13050000 		li	a0,0
 533 02e0 6FF05FF9 		j	.L24
 534              	.LVL45:
 535              	.L30:
 536              	.LBE110:
 537              	.LBE113:
  60:src/tcb.cpp   ****     return newTCB;
 538              		.loc 1 60 5 is_stmt 1
  60:src/tcb.cpp   ****     return newTCB;
 539              		.loc 1 60 19 is_stmt 0
 540 02e4 13850400 		mv	a0,s1
 541              	.LEHB2:
 542 02e8 97000000 		call	_ZN9Scheduler3putEP3TCB@plt
 542      E7800000 
 543              	.LVL46:
  61:src/tcb.cpp   **** }
 544              		.loc 1 61 5 is_stmt 1
  61:src/tcb.cpp   **** }
 545              		.loc 1 61 12 is_stmt 0
 546 02f0 6FF0DFFC 		j	.L23
 547              	.LVL47:
 548              	.L28:
 549 02f4 13090500 		mv	s2,a0
 550              	.LVL48:
  58:src/tcb.cpp   ****     if(!newTCB->isMain())
GAS LISTING /tmp/ccDGSsfN.s 			page 20


 551              		.loc 1 58 36
 552 02f8 13850400 		mv	a0,s1
 553 02fc 97000000 		call	_ZdlPv@plt
 553      E7800000 
 554              	.LVL49:
 555 0304 13050900 		mv	a0,s2
 556 0308 97000000 		call	_Unwind_Resume@plt
 556      E7800000 
 557              	.LVL50:
 558              	.LEHE2:
 559              		.cfi_endproc
 560              	.LFE48:
 561              		.globl	__gxx_personality_v0
 562              		.section	.gcc_except_table,"a",@progbits
 563              	.LLSDA48:
 564 0000 FF       		.byte	0xff
 565 0001 FF       		.byte	0xff
 566 0002 03       		.byte	0x3
 567 0003 27       		.byte	0x27
 568 0004 00000000 		.4byte	.LEHB0-.LFB48
 569 0008 00000000 		.4byte	.LEHE0-.LEHB0
 570 000c 00000000 		.4byte	0
 571 0010 00       		.byte	0
 572 0011 00000000 		.4byte	.LEHB1-.LFB48
 573 0015 00000000 		.4byte	.LEHE1-.LEHB1
 574 0019 00000000 		.4byte	.L28-.LFB48
 575 001d 00       		.byte	0
 576 001e 00000000 		.4byte	.LEHB2-.LFB48
 577 0022 00000000 		.4byte	.LEHE2-.LEHB2
 578 0026 00000000 		.4byte	0
 579 002a 00       		.byte	0
 580              		.text
 582              		.align	2
 583              		.globl	_ZN3TCB10exitThreadEv
 585              	_ZN3TCB10exitThreadEv:
 586              	.LFB50:
  81:src/tcb.cpp   ****     if(!running->isFinished()) {
 587              		.loc 1 81 23 is_stmt 1
 588              		.cfi_startproc
  82:src/tcb.cpp   ****         running->setFinished(true);
 589              		.loc 1 82 5
  82:src/tcb.cpp   ****         running->setFinished(true);
 590              		.loc 1 82 28 is_stmt 0
 591 0310 97070000 		ld	a5,.LANCHOR0+24
 591      83B70700 
 592              	.LVL51:
 593              	.LBB114:
 594              	.LBB115:
  25:src/../h/tcb.hpp ****     void setFinished(bool value){ TCB::finished = value; }
 595              		.loc 3 25 31 is_stmt 1
  25:src/../h/tcb.hpp ****     void setFinished(bool value){ TCB::finished = value; }
 596              		.loc 3 25 38 is_stmt 0
 597 0318 03C78703 		lbu	a4,56(a5)
 598              	.LVL52:
 599              	.LBE115:
 600              	.LBE114:
  82:src/tcb.cpp   ****         running->setFinished(true);
GAS LISTING /tmp/ccDGSsfN.s 			page 21


 601              		.loc 1 82 5
 602 031c 631C0702 		bnez	a4,.L33
  81:src/tcb.cpp   ****     if(!running->isFinished()) {
 603              		.loc 1 81 23
 604 0320 130101FF 		addi	sp,sp,-16
 605              		.cfi_def_cfa_offset 16
 606 0324 23341100 		sd	ra,8(sp)
 607 0328 23308100 		sd	s0,0(sp)
 608              		.cfi_offset 1, -8
 609              		.cfi_offset 8, -16
 610 032c 13040101 		addi	s0,sp,16
 611              		.cfi_def_cfa 8, 0
  83:src/tcb.cpp   ****         TCB::dispatch();
 612              		.loc 1 83 9 is_stmt 1
 613              	.LVL53:
 614              	.LBB116:
 615              	.LBB117:
  26:src/../h/tcb.hpp **** 
 616              		.loc 3 26 35
  26:src/../h/tcb.hpp **** 
 617              		.loc 3 26 49 is_stmt 0
 618 0330 13071000 		li	a4,1
 619 0334 238CE702 		sb	a4,56(a5)
 620              	.LVL54:
 621              	.LBE117:
 622              	.LBE116:
  84:src/tcb.cpp   ****         return 0;
 623              		.loc 1 84 9 is_stmt 1
  84:src/tcb.cpp   ****         return 0;
 624              		.loc 1 84 22 is_stmt 0
 625 0338 97000000 		call	_ZN3TCB8dispatchEv
 625      E7800000 
 626              	.LVL55:
  85:src/tcb.cpp   ****     } else return -1;
 627              		.loc 1 85 9 is_stmt 1
  85:src/tcb.cpp   ****     } else return -1;
 628              		.loc 1 85 16 is_stmt 0
 629 0340 13050000 		li	a0,0
  87:src/tcb.cpp   **** 
 630              		.loc 1 87 1
 631 0344 83308100 		ld	ra,8(sp)
 632              		.cfi_restore 1
 633 0348 03340100 		ld	s0,0(sp)
 634              		.cfi_restore 8
 635              		.cfi_def_cfa 2, 16
 636 034c 13010101 		addi	sp,sp,16
 637              		.cfi_def_cfa_offset 0
 638 0350 67800000 		jr	ra
 639              	.L33:
  86:src/tcb.cpp   **** }
 640              		.loc 1 86 20
 641 0354 1305F0FF 		li	a0,-1
  87:src/tcb.cpp   **** 
 642              		.loc 1 87 1
 643 0358 67800000 		ret
 644              		.cfi_endproc
 645              	.LFE50:
GAS LISTING /tmp/ccDGSsfN.s 			page 22


 647              		.align	2
 648              		.globl	_ZN3TCB4joinEPS_
 650              	_ZN3TCB4joinEPS_:
 651              	.LFB51:
  89:src/tcb.cpp   ****     if(!t->isFinished()) {
 652              		.loc 1 89 24 is_stmt 1
 653              		.cfi_startproc
 654              	.LVL56:
  90:src/tcb.cpp   ****         running->setBlocked(true);
 655              		.loc 1 90 5
 656              	.LBB118:
 657              	.LBB119:
  25:src/../h/tcb.hpp ****     void setFinished(bool value){ TCB::finished = value; }
 658              		.loc 3 25 31
  25:src/../h/tcb.hpp ****     void setFinished(bool value){ TCB::finished = value; }
 659              		.loc 3 25 38 is_stmt 0
 660 035c 83478503 		lbu	a5,56(a0)
 661              	.LVL57:
 662              	.LBE119:
 663              	.LBE118:
  90:src/tcb.cpp   ****         running->setBlocked(true);
 664              		.loc 1 90 5
 665 0360 63840700 		beqz	a5,.L45
 666 0364 67800000 		ret
 667              	.L45:
  89:src/tcb.cpp   ****     if(!t->isFinished()) {
 668              		.loc 1 89 24
 669 0368 130101FE 		addi	sp,sp,-32
 670              		.cfi_def_cfa_offset 32
 671 036c 233C1100 		sd	ra,24(sp)
 672 0370 23388100 		sd	s0,16(sp)
 673 0374 23349100 		sd	s1,8(sp)
 674 0378 23302101 		sd	s2,0(sp)
 675              		.cfi_offset 1, -8
 676              		.cfi_offset 8, -16
 677              		.cfi_offset 9, -24
 678              		.cfi_offset 18, -32
 679 037c 13040102 		addi	s0,sp,32
 680              		.cfi_def_cfa 8, 0
 681 0380 93040500 		mv	s1,a0
  91:src/tcb.cpp   ****         t->joinThreads.addLast(running);
 682              		.loc 1 91 9 is_stmt 1
  91:src/tcb.cpp   ****         t->joinThreads.addLast(running);
 683              		.loc 1 91 28 is_stmt 0
 684 0384 17090000 		ld	s2,.LANCHOR0+24
 684      03390900 
 685              	.LVL58:
 686              	.LBB120:
 687              	.LBB121:
  29:src/../h/tcb.hpp **** 
 688              		.loc 3 29 37 is_stmt 1
  29:src/../h/tcb.hpp **** 
 689              		.loc 3 29 50 is_stmt 0
 690 038c 93071000 		li	a5,1
 691 0390 A30CF902 		sb	a5,57(s2)
 692              	.LVL59:
 693              	.LBE121:
GAS LISTING /tmp/ccDGSsfN.s 			page 23


 694              	.LBE120:
  92:src/tcb.cpp   ****     }
 695              		.loc 1 92 9 is_stmt 1
 696              	.LBB122:
 697              	.LBB123:
  39:src/../h/list.hpp ****         if (tail)
 698              		.loc 2 39 22 is_stmt 0
 699 0394 13050001 		li	a0,16
 700              	.LVL60:
 701 0398 97000000 		call	_Znwm@plt
 701      E7800000 
 702              	.LVL61:
 703              	.LBB124:
 704              	.LBB125:
  18:src/../h/list.hpp ****     };
 705              		.loc 2 18 58
 706 03a0 23302501 		sd	s2,0(a0)
 707 03a4 23340500 		sd	zero,8(a0)
 708              	.LVL62:
 709              	.LBE125:
 710              	.LBE124:
  40:src/../h/list.hpp ****         {
 711              		.loc 2 40 13
 712 03a8 83B78404 		ld	a5,72(s1)
  40:src/../h/list.hpp ****         {
 713              		.loc 2 40 9
 714 03ac 63820702 		beqz	a5,.L40
  42:src/../h/list.hpp ****             tail = elem;
 715              		.loc 2 42 13
 716 03b0 23B4A700 		sd	a0,8(a5)
  43:src/../h/list.hpp ****         } else
 717              		.loc 2 43 13
 718 03b4 23B4A404 		sd	a0,72(s1)
 719              	.LVL63:
 720              	.L38:
 721              	.LBE123:
 722              	.LBE122:
  94:src/tcb.cpp   **** void TCB::release()
 723              		.loc 1 94 1
 724 03b8 83308101 		ld	ra,24(sp)
 725              		.cfi_remember_state
 726              		.cfi_restore 1
 727 03bc 03340101 		ld	s0,16(sp)
 728              		.cfi_restore 8
 729              		.cfi_def_cfa 2, 32
 730 03c0 83348100 		ld	s1,8(sp)
 731              		.cfi_restore 9
 732              	.LVL64:
 733 03c4 03390100 		ld	s2,0(sp)
 734              		.cfi_restore 18
 735 03c8 13010102 		addi	sp,sp,32
 736              		.cfi_def_cfa_offset 0
 737 03cc 67800000 		jr	ra
 738              	.LVL65:
 739              	.L40:
 740              		.cfi_restore_state
 741              	.LBB127:
GAS LISTING /tmp/ccDGSsfN.s 			page 24


 742              	.LBB126:
  46:src/../h/list.hpp ****         }
 743              		.loc 2 46 13
 744 03d0 23B4A404 		sd	a0,72(s1)
 745 03d4 23B0A404 		sd	a0,64(s1)
 746              	.LVL66:
 747              	.LBE126:
 748              	.LBE127:
  94:src/tcb.cpp   **** void TCB::release()
 749              		.loc 1 94 1
 750 03d8 6FF01FFE 		j	.L38
 751              		.cfi_endproc
 752              	.LFE51:
 754              		.align	2
 755              		.globl	_ZN3TCB7releaseEv
 757              	_ZN3TCB7releaseEv:
 758              	.LFB52:
  96:src/tcb.cpp   ****     while(joinThreads.hasElem()) {
 759              		.loc 1 96 1 is_stmt 1
 760              		.cfi_startproc
 761              	.LVL67:
 762 03dc 130101FE 		addi	sp,sp,-32
 763              		.cfi_def_cfa_offset 32
 764 03e0 233C1100 		sd	ra,24(sp)
 765 03e4 23388100 		sd	s0,16(sp)
 766 03e8 23349100 		sd	s1,8(sp)
 767 03ec 23302101 		sd	s2,0(sp)
 768              		.cfi_offset 1, -8
 769              		.cfi_offset 8, -16
 770              		.cfi_offset 9, -24
 771              		.cfi_offset 18, -32
 772 03f0 13040102 		addi	s0,sp,32
 773              		.cfi_def_cfa 8, 0
 774 03f4 93040500 		mv	s1,a0
 775 03f8 6F004002 		j	.L50
 776              	.LVL68:
 777              	.L52:
 778              	.LBB128:
 779              	.LBB129:
 780              	.LBB130:
  56:src/../h/list.hpp **** 
 781              		.loc 2 56 22 is_stmt 0
 782 03fc 23B40404 		sd	zero,72(s1)
 783              	.L49:
  58:src/../h/list.hpp ****         delete elem;
 784              		.loc 2 58 12
 785 0400 03390500 		ld	s2,0(a0)
 786              	.LVL69:
  59:src/../h/list.hpp ****         return ret;
 787              		.loc 2 59 9
 788 0404 97000000 		call	_ZdlPv@plt
 788      E7800000 
 789              	.LVL70:
 790              	.LBE130:
 791              	.LBE129:
  99:src/tcb.cpp   ****         Scheduler::put(t);
 792              		.loc 1 99 9 is_stmt 1
GAS LISTING /tmp/ccDGSsfN.s 			page 25


 793              	.LBB132:
 794              	.LBB133:
  29:src/../h/tcb.hpp **** 
 795              		.loc 3 29 37
  29:src/../h/tcb.hpp **** 
 796              		.loc 3 29 50 is_stmt 0
 797 040c A30C0902 		sb	zero,57(s2)
 798              	.LVL71:
 799              	.LBE133:
 800              	.LBE132:
 100:src/tcb.cpp   ****     }
 801              		.loc 1 100 9 is_stmt 1
 100:src/tcb.cpp   ****     }
 802              		.loc 1 100 23 is_stmt 0
 803 0410 13050900 		mv	a0,s2
 804 0414 97000000 		call	_ZN9Scheduler3putEP3TCB@plt
 804      E7800000 
 805              	.LVL72:
 806              	.L50:
 807              	.LBE128:
  97:src/tcb.cpp   ****         TCB* t = joinThreads.removeFirst();
 808              		.loc 1 97 5 is_stmt 1
  97:src/tcb.cpp   ****         TCB* t = joinThreads.removeFirst();
 809              		.loc 1 97 30
 810              	.LBB135:
 811              	.LBB136:
 812              		.loc 2 96 12 is_stmt 0
 813 041c 03B50404 		ld	a0,64(s1)
 814              		.loc 2 96 9
 815 0420 630A0500 		beqz	a0,.L46
 816              	.LVL73:
 817              	.LBE136:
 818              	.LBE135:
 819              	.LBB137:
  98:src/tcb.cpp   ****         t->setBlocked(false);
 820              		.loc 1 98 9 is_stmt 1
 821              	.LBB134:
 822              	.LBB131:
  55:src/../h/list.hpp ****         if (!head) { tail = 0; }
 823              		.loc 2 55 22 is_stmt 0
 824 0424 83378500 		ld	a5,8(a0)
  55:src/../h/list.hpp ****         if (!head) { tail = 0; }
 825              		.loc 2 55 9
 826 0428 23B0F404 		sd	a5,64(s1)
  56:src/../h/list.hpp **** 
 827              		.loc 2 56 9
 828 042c E39A07FC 		bnez	a5,.L49
 829 0430 6FF0DFFC 		j	.L52
 830              	.LVL74:
 831              	.L46:
 832              	.LBE131:
 833              	.LBE134:
 834              	.LBE137:
 835              		.loc 1 102 1
 836 0434 83308101 		ld	ra,24(sp)
 837              		.cfi_restore 1
 838 0438 03340101 		ld	s0,16(sp)
GAS LISTING /tmp/ccDGSsfN.s 			page 26


 839              		.cfi_restore 8
 840              		.cfi_def_cfa 2, 32
 841 043c 83348100 		ld	s1,8(sp)
 842              		.cfi_restore 9
 843              	.LVL75:
 844 0440 03390100 		ld	s2,0(sp)
 845              		.cfi_restore 18
 846 0444 13010102 		addi	sp,sp,32
 847              		.cfi_def_cfa_offset 0
 848 0448 67800000 		jr	ra
 849              		.cfi_endproc
 850              	.LFE52:
 852              		.align	2
 853              		.globl	_ZN3TCB13threadWrapperEv
 855              	_ZN3TCB13threadWrapperEv:
 856              	.LFB49:
  64:src/tcb.cpp   ****     Riscv::popSppSpie();
 857              		.loc 1 64 27 is_stmt 1
 858              		.cfi_startproc
 859 044c 130101FF 		addi	sp,sp,-16
 860              		.cfi_def_cfa_offset 16
 861 0450 23341100 		sd	ra,8(sp)
 862 0454 23308100 		sd	s0,0(sp)
 863              		.cfi_offset 1, -8
 864              		.cfi_offset 8, -16
 865 0458 13040101 		addi	s0,sp,16
 866              		.cfi_def_cfa 8, 0
  65:src/tcb.cpp   **** 
 867              		.loc 1 65 5
  65:src/tcb.cpp   **** 
 868              		.loc 1 65 22 is_stmt 0
 869 045c 97000000 		call	_ZN5Riscv10popSppSpieEv@plt
 869      E7800000 
 870              	.LVL76:
  68:src/tcb.cpp   ****         //za main
 871              		.loc 1 68 5 is_stmt 1
  68:src/tcb.cpp   ****         //za main
 872              		.loc 1 68 23 is_stmt 0
 873 0464 97070000 		ld	a5,.LANCHOR0+24
 873      83B70700 
 874              	.LVL77:
 875              	.LBB138:
 876              	.LBB139:
  34:src/../h/tcb.hpp **** 
 877              		.loc 3 34 26 is_stmt 1
  34:src/../h/tcb.hpp **** 
 878              		.loc 3 34 33 is_stmt 0
 879 046c 03C7A703 		lbu	a4,58(a5)
 880              	.LVL78:
 881              	.LBE139:
 882              	.LBE138:
  68:src/tcb.cpp   ****         //za main
 883              		.loc 1 68 5
 884 0470 63020704 		beqz	a4,.L54
  71:src/tcb.cpp   **** 
 885              		.loc 1 71 13 is_stmt 1
  71:src/tcb.cpp   **** 
GAS LISTING /tmp/ccDGSsfN.s 			page 27


 886              		.loc 1 71 22 is_stmt 0
 887 0474 03B50700 		ld	a0,0(a5)
  71:src/tcb.cpp   **** 
 888              		.loc 1 71 40
 889 0478 83370500 		ld	a5,0(a0)
 890 047c 83B70701 		ld	a5,16(a5)
  71:src/tcb.cpp   **** 
 891              		.loc 1 71 39
 892 0480 E7800700 		jalr	a5
 893              	.LVL79:
 894              	.L55:
  76:src/tcb.cpp   ****     running->release();
 895              		.loc 1 76 5 is_stmt 1
  76:src/tcb.cpp   ****     running->release();
 896              		.loc 1 76 25 is_stmt 0
 897 0484 17050000 		ld	a0,.LANCHOR0+24
 897      03350500 
 898              	.LVL80:
 899              	.LBB140:
 900              	.LBB141:
  26:src/../h/tcb.hpp **** 
 901              		.loc 3 26 35 is_stmt 1
  26:src/../h/tcb.hpp **** 
 902              		.loc 3 26 49 is_stmt 0
 903 048c 93071000 		li	a5,1
 904 0490 230CF502 		sb	a5,56(a0)
 905              	.LVL81:
 906              	.LBE141:
 907              	.LBE140:
  77:src/tcb.cpp   ****     TCB::yield();
 908              		.loc 1 77 5 is_stmt 1
  77:src/tcb.cpp   ****     TCB::yield();
 909              		.loc 1 77 21 is_stmt 0
 910 0494 97000000 		call	_ZN3TCB7releaseEv
 910      E7800000 
 911              	.LVL82:
  78:src/tcb.cpp   **** }
 912              		.loc 1 78 5 is_stmt 1
  78:src/tcb.cpp   **** }
 913              		.loc 1 78 15 is_stmt 0
 914 049c 97000000 		call	_ZN3TCB5yieldEv
 914      E7800000 
 915              	.LVL83:
  79:src/tcb.cpp   **** 
 916              		.loc 1 79 1
 917 04a4 83308100 		ld	ra,8(sp)
 918              		.cfi_remember_state
 919              		.cfi_restore 1
 920 04a8 03340100 		ld	s0,0(sp)
 921              		.cfi_restore 8
 922              		.cfi_def_cfa 2, 16
 923 04ac 13010101 		addi	sp,sp,16
 924              		.cfi_def_cfa_offset 0
 925 04b0 67800000 		jr	ra
 926              	.L54:
 927              		.cfi_restore_state
  75:src/tcb.cpp   ****     running->setFinished(true);
GAS LISTING /tmp/ccDGSsfN.s 			page 28


 928              		.loc 1 75 5 is_stmt 1
  75:src/tcb.cpp   ****     running->setFinished(true);
 929              		.loc 1 75 14 is_stmt 0
 930 04b4 03B78700 		ld	a4,8(a5)
  75:src/tcb.cpp   ****     running->setFinished(true);
 931              		.loc 1 75 18
 932 04b8 03B50703 		ld	a0,48(a5)
 933 04bc E7000700 		jalr	a4
 934              	.LVL84:
 935 04c0 6FF05FFC 		j	.L55
 936              		.cfi_endproc
 937              	.LFE49:
 939              		.align	2
 941              	_GLOBAL__sub_I__ZN3TCB7runningE:
 942              	.LFB63:
 943              		.loc 1 102 1 is_stmt 1
 944              		.cfi_startproc
 945 04c4 130101FF 		addi	sp,sp,-16
 946              		.cfi_def_cfa_offset 16
 947 04c8 23341100 		sd	ra,8(sp)
 948 04cc 23308100 		sd	s0,0(sp)
 949              		.cfi_offset 1, -8
 950              		.cfi_offset 8, -16
 951 04d0 13040101 		addi	s0,sp,16
 952              		.cfi_def_cfa 8, 0
 953              		.loc 1 102 1 is_stmt 0
 954 04d4 B7050100 		li	a1,65536
 955 04d8 9385F5FF 		addi	a1,a1,-1
 956 04dc 13051000 		li	a0,1
 957 04e0 97000000 		call	_Z41__static_initialization_and_destruction_0ii
 957      E7800000 
 958              	.LVL85:
 959 04e8 83308100 		ld	ra,8(sp)
 960              		.cfi_restore 1
 961 04ec 03340100 		ld	s0,0(sp)
 962              		.cfi_restore 8
 963              		.cfi_def_cfa 2, 16
 964 04f0 13010101 		addi	sp,sp,16
 965              		.cfi_def_cfa_offset 0
 966 04f4 67800000 		jr	ra
 967              		.cfi_endproc
 968              	.LFE63:
 970              		.section	.init_array,"aw"
 971              		.align	3
 972 0000 00000000 		.dword	_GLOBAL__sub_I__ZN3TCB7runningE
 972      00000000 
 973              		.globl	_ZN3TCB14blockedBarrierE
 974              		.globl	_ZN3TCB13blockedNumberE
 975              		.globl	_ZN3TCB2IDE
 976              		.globl	_ZN3TCB16timeSliceCounterE
 977              		.globl	_ZN3TCB13readyToPrintCE
 978              		.globl	_ZN3TCB13readyToPrintBE
 979              		.globl	_ZN3TCB13readyToPrintAE
 980              		.globl	_ZN3TCB7runningE
 981              		.bss
 982              		.align	3
 983              		.set	.LANCHOR0,. + 0
GAS LISTING /tmp/ccDGSsfN.s 			page 29


 986              	_ZN3TCB14blockedBarrierE:
 987 0000 00000000 		.zero	16
 987      00000000 
 987      00000000 
 987      00000000 
 990              	_ZN3TCB2IDE:
 991 0010 00000000 		.zero	4
 994              	_ZN3TCB13blockedNumberE:
 995 0014 00000000 		.zero	4
 998              	_ZN3TCB7runningE:
 999 0018 00000000 		.zero	8
 999      00000000 
 1002              	_ZN3TCB16timeSliceCounterE:
 1003 0020 00000000 		.zero	4
 1006              	_ZN3TCB13readyToPrintCE:
 1007 0024 00       		.zero	1
 1010              	_ZN3TCB13readyToPrintBE:
 1011 0025 00       		.zero	1
 1014              	_ZN3TCB13readyToPrintAE:
 1015 0026 00       		.zero	1
 1016              		.text
 1017              	.Letext0:
 1018              		.file 5 "src/../h/../lib/hw.h"
 1019              		.file 6 "src/../h/scheduler.hpp"
 1020              		.file 7 "src/../h/../h/syscall_c.hpp"
 5574              		.align	3
 5577              	DW.ref.__gxx_personality_v0:
 5578 0000 00000000 		.dword	__gxx_personality_v0
 5578      00000000 
 5579              		.ident	"GCC: (Ubuntu 9.4.0-1ubuntu1~20.04) 9.4.0"
 5580              		.section	.note.GNU-stack,"",@progbits
GAS LISTING /tmp/ccDGSsfN.s 			page 30

